00000000005ea6b4 T ASN1_item_d2i
000000000060c79c T ASN1_item_d2i_bio
000000000060c81c T ASN1_item_d2i_fp
00000000006dcdec T ASN1_item_digest
00000000005ee61c T ASN1_item_dup
00000000005ea714 T ASN1_item_ex_d2i
00000000005ed468 T ASN1_item_ex_free
00000000005ec5e8 T ASN1_item_ex_i2d
00000000005ed684 T ASN1_item_ex_new
00000000005ed1e0 T ASN1_item_free
00000000005ec5e0 T ASN1_item_i2d
000000000060cad0 T ASN1_item_i2d_bio
000000000060ca40 T ASN1_item_i2d_fp
00000000005ec4e4 T ASN1_item_ndef_i2d
00000000005ed64c T ASN1_item_new
00000000005e9234 T ASN1_item_pack
000000000060f1f8 T ASN1_item_print
000000000069b814 T ASN1_item_sign
000000000069b8e0 T ASN1_item_sign_ctx
00000000005e9344 T ASN1_item_unpack
000000000069e4d4 T ASN1_item_verify
000000000d7b7744 B BattleItemNo
00000000007ce684 D BattleMapFile
000000000d7ad70c B BattleMapNo
000000000ebebee8 B BattlePetReceiveFlag
00000000008071c8 D BattlePetReceivePetNo
000000000d7b7734 B BattlePetStMenCnt
000000000ebec71c B CharDetail
000000000d9e4798 B ChatItemPetBuff
000000000ebeb100 B DropPetWndflag
00000000005e7eec T EVP_PKEY_asn1_set_item
000000000ebebf0c B ItemBuffer
000000000ebebf08 B ItemMixRecvFlag
000000000e9451c8 B MapObjectAni
00000000007ea03c D MapObjectMapping
000000000ebebdf0 B MapWmdFlagBak
000000000eb3a6c0 B NpcShopType
0000000000691408 T OPENSSL_LH_num_items
000000000069853c T OPENSSL_hexchar2int
00000000006a46ec T PKCS12_item_decrypt_d2i
00000000006a47c8 T PKCS12_item_i2d_encrypt
00000000006a4090 T PKCS12_item_pack_safebag
00000000007ace38 D POLICY_MAPPINGS_it
00000000006ed090 T POLICY_MAPPING_free
00000000007acf28 D POLICY_MAPPING_it
00000000006ed084 T POLICY_MAPPING_new
00000000006eb27c T PROFESSION_INFO_get0_professionItems
00000000006eb284 T PROFESSION_INFO_set0_professionItems
000000000eb3964c B PetItemCutIndex
000000000eb39650 B PetItemFlg
00000000007ea028 D PetItemIndex
000000000eb39654 B PetItemPosIndex
000000000eb657ac B PetskillShpwWindowProcNo
000000000ec13600 B ScriptCatchPet
000000000ebebec0 B ShowPetNum
000000000e94ddd0 B ShowSellItem
000000000e94e888 B ShowVendorItem
000000000ebebeec B StandbyPetSendFlag
000000000e95405c B VendorManagementItem
000000000da0af38 B WmItemPetBuff
00000000006ef8ec T X509V3_add_value_uchar
000000000061d780 T X9_62_CHARACTERISTIC_TWO_free
000000000061d774 T X9_62_CHARACTERISTIC_TWO_new
0000000000392274 T _Z10CensorChatRNSt6__ndk112basic_stringIcNS_11char_traitsIcEENS_9allocatorIcEEEE
00000000003f9de4 T _Z10CharToWidePKcPwm
00000000004b8048 T _Z10EndWarpMapv
000000000039c4c8 T _Z10GetZipItemP6HZIP__iP8ZIPENTRY
000000000038d3f8 T _Z10TrimStringRNSt6__ndk112basic_stringIcNS_11char_traitsIcEENS_9allocatorIcEEEE
00000000003f9d10 T _Z10WideToCharPKwPcm
00000000004806d8 T _Z10charLogoutv
000000000047f7ec T _Z10createCharv
0000000000455bdc T _Z10delCharObji
0000000000484d48 T _Z10initShopWNPc
0000000000514314 T _Z10insertCharPcci
00000000004d5264 T _Z10mapWndProcv
00000000004dd6f4 T _Z10petWndProcv
00000000004ba23c T _Z10readHitMapiiiiPtS_S_S_
0000000000513f00 T _Z10replaceAllRNSt6__ndk112basic_stringIcNS_11char_traitsIcEENS_9allocatorIcEEEERKS5_S8_
00000000004b997c T _Z10setWarpMapii
00000000004d164c T _Z11CalcPetDataiiiiiiiiiiiiiiiiP7calcPet
0000000000446f30 T _Z11CheckPetSuuv
000000000039c518 T _Z11FindZipItemP6HZIP__PKcbPiP8ZIPENTRY
000000000045dbf0 T _Z11GetCharPrevPcS_
00000000003d6294 T _Z11GetFunctionPc
00000000004c75bc T _Z11InitItemUseii
00000000004bbe38 T _Z11checkHitMapii
0000000000457254 T _Z11delCharMindP6action
000000000050789c T _Z11delCharProcv
00000000004c00e0 T _Z11drawAutoMapii
000000000045e228 T _Z11getCharNamePcS_
0000000000456e3c T _Z11getCharTypeP6action
000000000045aecc T _Z11getPetRouteP6action
00000000004bd860 T _Z11getRouteMapv
0000000000460b28 T _Z11hidePetDatav
000000000045a6f0 T _Z11initCharObjv
00000000004d5f60 T _Z11itemWndProcv
0000000000463dec T _Z11lookPetInfoi
00000000004bbba8 T _Z11mapCheckSumiiiiiiii
00000000004f399c T _Z11noBattlePetv
000000000045b180 T _Z11petMoveProcP6action
0000000000457000 T _Z11setCharMindP6actioni
00000000004bffac T _Z11setCharPrioiiiiiffc
0000000000460ba4 T _Z11showPetDatav
00000000004f1b50 T _Z12ItemDispProciiPciS_S_i
00000000003e85c8 T _Z12ReadTextFilePKcPKwP10StringListbb11RAR_CHARSETbbb
0000000000517308 T _Z12char2JstringP7_JNIEnvPKc
00000000005073b0 T _Z12charListProcv
00000000004e5fd4 T _Z12checkRidePeti
0000000000456f58 T _Z12delCharPartyP6action
0000000000507834 T _Z12delCharStartv
00000000004579b0 T _Z12delCharTradeP6action
0000000000456fcc T _Z12delCharWatchP6action
0000000000457768 T _Z12delCharmBodyP6action
00000000004578bc T _Z12delNpcNoticeP6action
000000000045e1bc T _Z12getCharName1PcS_
00000000004f3298 T _Z12getItemWndNov
00000000004d1640 T _Z12hideItemDispv
00000000004f1a18 T _Z12initCatchPetv
00000000004f184c T _Z12initCharProcv
00000000004d1840 T _Z12initItemDispv
00000000003d357c T _Z12initWorldMapv
00000000005172a8 T _Z12jstring2charP7_JNIEnvP8_jstringPc
00000000003c69f0 T _Z12luaopen_charP9lua_State
00000000004dd564 T _Z12petRideCheckv
000000000049940c T _Z12petStorageWMv
0000000000387180 T _Z12play_map_bgmi
000000000045a758 T _Z12resetCharObjv
000000000047cc94 T _Z12selCharGraNov
0000000000456f18 T _Z12setCharPartyP6action
000000000045797c T _Z12setCharTradeP6actioni
0000000000456f98 T _Z12setCharWatchP6action
000000000045764c T _Z12setCharmBodyP6actioni
000000000045779c T _Z12setNpcNoticeP6actioni
00000000003d36b4 T _Z12worldMapProcv
00000000004c7404 T _Z13CheckPetSkilli
00000000004468c0 T _Z13DrawBattleMapv
000000000041cad0 T _Z13DrawMapEffectv
00000000003bf118 T _Z13ItemRenderingv
0000000000446008 T _Z13ReadBattleMapi
00000000004bec00 T _Z13_partyMapMovev
00000000004c4504 T _Z13calEffectStarP11_MAP_EFFECT
00000000004bc3b8 T _Z13camGamenToMapffPfS_
00000000004baee8 T _Z13camMapToGamenffPfS_
0000000000457da4 T _Z13changeCharActP6actioniiiiiii
000000000050735c T _Z13charListStartv
0000000000507294 T _Z13charLoginProcv
0000000000387edc T _Z13charTitleProcii
00000000004baa38 T _Z13checkEmptyMapi
0000000000458dac T _Z13checkNPCPointiiPc
00000000005047ac T _Z13clsCharObjExtv
00000000004c015c T _Z13createAutoMapiii
0000000000457944 T _Z13delCharBattleP6action
0000000000457378 T _Z13delCharFamilyP6action
0000000000456ee4 T _Z13delCharLeaderP6action
0000000000457618 T _Z13delCharmManorP6action
00000000004c0824 T _Z13drawMapEffectv
000000000047dbb0 T _Z13editCharParamv
00000000005199f4 T _Z13getAppVersionPc
000000000045a44c T _Z13getCharObjActi
0000000000459778 T _Z13getCharObjBufv
000000000045a6d4 T _Z13getCharObjUidi
000000000045bc50 T _Z13getcharObjUsei
000000000048024c T _Z13initCharLoginv
000000000038862c T _Z13initCharTitlev
00000000004c0610 T _Z13initMapEffectb
0000000000498160 T _Z13itemStorageWMv
00000000004c0858 T _Z13mapEffectProcv
00000000004c08d8 T _Z13mapEffectRainv
00000000004c0c78 T _Z13mapEffectSnowv
00000000004c10c8 T _Z13mapEffectStarv
00000000004578f0 T _Z13setCharBattleP6actioniss
0000000000457258 T _Z13setCharFamilyP6actioni
0000000000456cd8 T _Z13setCharLeaderP6action
0000000000504814 T _Z13setCharObjExtiiiii
000000000045a5fc T _Z13setCharObjUidiPc
00000000005012f8 T _Z13setCharSecretPciiii
0000000000456b94 T _Z13setCharStatusPtPc
00000000004574fc T _Z13setCharmManorP6actioni
00000000004c44e8 T _Z13setEffectStarP11_MAP_EFFECTiiiii
00000000004590ac T _Z13setNpcCharObjiiiiiPcS_S_iS_iiiiiiiiiiiiiiiii
00000000004bf1b4 T _Z13shiftRouteMapv
0000000000387ca8 T _Z13showCharTitleii
0000000000495c24 T _Z13showRidePetWNv
00000000004bd52c T _Z13updateMapAreav
000000000045b30c T _Z13uprisePetProcP6action
0000000000515944 T _Z14CompareVersionRKNSt6__ndk112basic_stringIcNS_11char_traitsIcEENS_9allocatorIcEEEES7_
0000000000445e00 T _Z14DeathCharExtraPv
000000000045cecc T _Z14NextCharLengthPKc
0000000000471b2c T _Z14PetItemFromStrP12_CHAT_BUFFERihPci
00000000003d9024 T _Z14ScriptFunc_MapiP14ScriptArgument
00000000003d8fe8 T _Z14ScriptFunc_NpciP14ScriptArgument
00000000004be62c T _Z14_checkEmptyMapv
0000000000507240 T _Z14charLoginStartv
0000000000507498 T _Z14charLogoutProcv
00000000003a7818 T _Z14checkNPCInPathii
00000000004b9b88 T _Z14ddrawBattleMapv
00000000004574c8 T _Z14delCharmFamilyP6action
0000000000454414 T _Z14drawCharStatusP6action
00000000003a7764 T _Z14finishFightNPCb
0000000000459884 T _Z14getAtrCharTypei
0000000000456c98 T _Z14getCharTeamNumP6action
0000000000513a1c T _Z14getDoubleTokenPcci
000000000050a02c T _Z14getPetEmptyNumv
00000000005137d0 T _Z14getStringTokenPcciiS_
00000000004806cc T _Z14initCharLogoutv
000000000047f7e0 T _Z14initCreateCharv
00000000004847fc T _Z14initFMPKListWNPc
00000000004c3d58 T _Z14mapEffectProc2i
00000000004c3d7c T _Z14mapEffectRain2i
00000000004c40d0 T _Z14mapEffectSnow2i
000000000046a094 T _Z14selectMailItemPvS_
000000000045a528 T _Z14setCharObjTypeii
0000000000456c70 T _Z14setCharTeamNumii
00000000004573ac T _Z14setCharmFamilyP6actioni
0000000000459ccc T _Z14setItemCharObjiiiiiiPc
00000000004be76c T _Z14shiftRouteMap2v
00000000004bb7ec T _Z14stockCharPartsv
00000000004d5704 T _Z14useItemWndProcPb
00000000003a76ec T _Z14waitToFightNPCii
00000000003a75c4 T _Z14walkToFightNPCv
000000000044bce4 T _Z15BattleButtonPetv
000000000041c5b4 T _Z15DrawAutoMappingiiPhii
00000000004c465c T _Z15GetMiniMapPointdiiPiS_
00000000004c45bc T _Z15GetMiniMapPointdiiiiPiS_
000000000041e7c4 T _Z15GetOneCharWidthPKciii
00000000004c4714 T _Z15GetRealMapPointdiiiiPiS_
00000000004d041c T _Z15ItemDispProcExtNSt6__ndk18functionIFvvEEEiNS0_IFvPviEEES3_iS5_S3_iS5_S3_b
000000000051571c T _Z15ParseUpdateJsonRKNSt6__ndk112basic_stringIcNS_11char_traitsIcEENS_9allocatorIcEEEE
00000000003eba0c T _Z15PointToLastCharPKc
00000000003eba28 T _Z15PointToLastCharPKw
000000000039c5a4 T _Z15UnzipItemHandleP6HZIP__iP7__sFILE
0000000000507448 T _Z15charLogoutStartv
000000000051a5a4 T _Z15checkRechargingv
000000000045b8a4 T _Z15createPetActioniiiiiii
0000000000460b68 T _Z15deathPetDataActv
000000000045889c T _Z15delCharFMEffectP6action
0000000000457a14 T _Z15delCharUseMagicP6action
00000000004c072c T _Z15delMapEffectBufP11_MAP_EFFECT
000000000047c2b8 T _Z15deleteCharacterv
000000000041c7a0 T _Z15getAutoMapColorj
0000000000387eac T _Z15getCharTitleNumv
00000000005138dc T _Z15getIntegerTokenPcci
000000000050a088 T _Z15getItemEmptyNumv
00000000004f32a8 T _Z15getItemInfoFlagv
00000000004c06ec T _Z15getMapEffectBufv
00000000004a91d0 T _Z15initFamilyTaxWNPc
00000000004cfe2c T _Z15initItemDispExtiiiPcS_iS_iiS_S_S_
00000000004d1830 T _Z15lookMenuPetInfoi
000000000045b5a0 T _Z15petCircleInProcP6action
0000000000458cd4 T _Z15searchCharObjIdi
00000000004f1a60 T _Z15setCatchPetDataiiPcS_i
0000000000458780 T _Z15setCharFMEffectP6actioni
00000000004579e4 T _Z15setCharUseMagicP6action
00000000004be7b0 T _Z15setMapMovePointii
000000000045a08c T _Z15setMoneyCharObjiiiiiiPc
00000000004599d0 T _Z15setReturnPetObjiiiiiPcS_iiiii
0000000000388328 T _Z15updateCharTitlePc
000000000044a424 T _Z16BattleButtonItemv
0000000000389110 T _Z16DNS_ResolveAsyncRKNSt6__ndk112basic_stringIcNS_11char_traitsIcEENS_9allocatorIcEEEES7_NS_8functionIFvRK17tagAddrInfoResultEEE
00000000003d15d0 T _Z16FreeGetBattleMapi
00000000004c50b0 T _Z16JuPlayerItemNumsv
000000000046b880 T _Z16MapObjectAniProcP6action
00000000004becfc T _Z16_setMapMovePointii
00000000004bfdfc T _Z16addCharPartsPrioP23TAG_CHAR_PARTS_PRIORITYS0_
00000000004563e4 T _Z16createCharActioniiii
00000000004c00bc T _Z16delCharPartsPrioP23TAG_CHAR_PARTS_PRIORITY
0000000000458b44 T _Z16delCharStrEffectP6action
000000000047b864 T _Z16downloadCharListv
00000000004d0410 T _Z16getItemDispStausv
00000000003bd6b8 T _Z16initAutoMapColorv
0000000000484ac0 T _Z16initFMPKDetailWNPc
00000000004849b8 T _Z16initFMPKSelectWNPc
0000000000480c60 T _Z16initPetStorageWMPc
000000000047ca5c T _Z16initSelCharGraNov
0000000000514094 T _Z16isOnlySpaceCharsPc
0000000000455dac T _Z16itemOverlapCheckjii
00000000003bd8e8 T _Z16makeAutoMapColorv
000000000045b3d8 T _Z16petCircleOutProcP6action
00000000003bd828 T _Z16readAutoMapColorPc
0000000000463de0 T _Z16selectPetWndTypei
00000000004a4bc4 T _Z16sellShopItemCallPvS_
00000000004c82d0 T _Z16send_StandBy_Petv
0000000000457a48 T _Z16setCharFukidashiP6actionj
000000000045672c T _Z16setCharMovePointP6actionii
0000000000457b94 T _Z16setCharNameColorP6actioni
0000000000458a28 T _Z16setCharStrEffectP6actioni
0000000000456550 T _Z16setCharWarpPointP6actionii
00000000005094a4 T _Z16setCharacterListPcS_
00000000004bf9d4 T _Z16setMapMovePoint2ii
0000000000457b50 T _Z17CharbubbleReleasev
000000000046b7d8 T _Z17CheckMapObjectAnii
00000000003a75a0 T _Z17IsWaitingFightNPCv
00000000004896e4 T _Z17PetSkillShowType1v
00000000004f181c T _Z17RIDEPET_getRIDEnoii
00000000003d8db8 T _Z17ScriptFunc_SeeNpciP14ScriptArgument
000000000039c560 T _Z17UnzipItemInternalP6HZIP__iPvjj
0000000000456868 T _Z17_setCharMovePointP6actionii
0000000000458e90 T _Z17checkCharObjPointiis
00000000004bf26c T _Z17checkEmptyMapDataiii
000000000045a800 T _Z17clearPtActCharObjv
00000000005077a4 T _Z17createNewCharProcv
000000000045874c T _Z17delCharItemEffectP6action
0000000000459844 T _Z17getAtrCharObjTypei
0000000000395090 T _Z17getCharTitleSplitPcP10_TITLE_STR
0000000000513ce0 T _Z17getInteger62TokenPcci
00000000004bfde0 T _Z17initCharPartsPriov
000000000047db58 T _Z17initEditCharParamv
00000000004808c8 T _Z17initItemStorageWMPc
000000000047c760 T _Z17initMakeCharacterv
000000000047cbc0 T _Z17initSelCharGraNo2v
0000000000484c0c T _Z17initShowRidePetWNv
000000000047c764 T _Z17makeCharacterProcv
00000000004c0780 T _Z17mapEffectDirHoseiPiS_
0000000000458630 T _Z17setCharItemEffectP6actioni
00000000005013c4 T _Z17setCharSecretNamePcS_
00000000003bd9c0 T _Z17writeAutoMapColorPc
000000000047baf8 T _Z18DelCharGraColorWinv
00000000003be434 T _Z18InitSprBinFileOpenPcS_
000000000046b98c T _Z18MapObjectAniCreateiii
00000000004f173c T _Z18RIDEPET_getNOindexi
00000000004b8358 T _Z18ScriptFunc_WarpMapiP14ScriptArgument
00000000003d9214 T _Z18ScriptFunc_itemNumiP14ScriptArgument
00000000003da390 T _Z18ScriptFunc_petHaveiP14ScriptArgument
000000000045d260 T _Z18StockStrBufferCharc
00000000004800e8 T _Z18characterLoginProcv
00000000005076a0 T _Z18createNewCharStartv
000000000045c010 T _Z18delCharEnemyEffectP6action
00000000003bc108 T _Z18get_bc_asc_ridepetP6action
000000000047dba4 T _Z18initEditCharParam2v
0000000000481284 T _Z18initFamilyCreationPc
000000000040db24 T _Z18lssproto_SPET_recviii
000000000041024c T _Z18lssproto_SPET_sendii
00000000003bb304 T _Z18petfallChangeGraphP6action
00000000003bb550 T _Z18petrideChangeGraphP6actioni
0000000000509770 T _Z18resetCharacterListi
000000000047fcc8 T _Z18selCharGraColorWinv
00000000004f1a30 T _Z18setCatchPetTypeStriPci
00000000004598b4 T _Z18setCharEnemyEffectP6actioni
00000000004f2b4c T _Z18showPromptBmpToPetPciS_
00000000004564f0 T _Z18stockCharMovePointP6actionii
0000000000509ff4 T _Z19CHAR_getMaxHaveGoldv
000000000038b5a4 T _Z19GetDownloadFileNameNSt6__ndk112basic_stringIcNS_11char_traitsIcEENS_9allocatorIcEEEE
000000000046bad4 T _Z19MapObjectAniReleasev
00000000004f1774 T _Z19RIDEPET_getPETindexii
00000000004b8cc4 T _Z19ScriptFunc_ExistPetiP14ScriptArgument
00000000004b8444 T _Z19ScriptFunc_WarpMap1iP14ScriptArgument
00000000003d98b4 T _Z19ScriptFunc_itemHaveiP14ScriptArgument
000000000040f704 T _Z19TalkPetItemDataInitPcS_S_Pi
00000000004804bc T _Z19characterLogoutProcv
00000000004585fc T _Z19delCharExpPeetEnemyP6action
00000000004589f0 T _Z19delCharFMFlagEffectP6action
000000000045ba6c T _Z19getObjIdFormCharObji
000000000047c2ac T _Z19initDeleteCharacterv
00000000004bff88 T _Z19insertCharPartsPrioP23TAG_CHAR_PARTS_PRIORITYS0_
000000000040db70 T _Z19lssproto_PETST_recviii
0000000000411278 T _Z19lssproto_PETST_sendiii
0000000000403764 T _Z19lssproto_mkstr_charc
0000000000514440 T _Z19makeCharFromEscapedc
00000000004c3840 T _Z19mapEffectKamiFubukiv
000000000045aaa4 T _Z19restorePtActCharObji
000000000047a814 T _Z19selectCharacterProcv
00000000004584e0 T _Z19setCharExpPeetEnemyP6actioni
00000000004588d0 T _Z19setCharFMFlagEffectP6actioni
000000000045ad10 T _Z19setMovePointCharObjiii
00000000004f29fc T _Z19showPromptBmpToItemPciS_
00000000004f2fa8 T _Z19showPromptBmpToItemiPc
000000000041bb28 T _Z20DrawBitmapToSurface2P11surfaceInfoiiii
0000000000464fcc T _Z20GetEmptyShowSellItemP15_Show_Sell_Item
000000000041bb00 T _Z20LoadDirectDrawBitmapPc
00000000003d8d7c T _Z20ScriptFunc_DialogNpciP14ScriptArgument
00000000004b8818 T _Z20ScriptFunc_ExistItemiP14ScriptArgument
000000000045cf58 T _Z20StockStrBufferDBCharPc
00000000004bfe24 T _Z20checkPrioPartsVsCharP23TAG_CHAR_PARTS_PRIORITYS0_
0000000000509480 T _Z20cmpNameCharacterListPc
0000000000456588 T _Z20correctCharMovePointP6actionii
0000000000458ca0 T _Z20delCharsetitemEffectP6action
000000000047b744 T _Z20initDownloadCharListv
000000000045ae40 T _Z20initItemOverlapCheckv
00000000004c3330 T _Z20mapEffectFallingStarv
00000000004d1824 T _Z20selectMenuPetWndTypei
0000000000458b78 T _Z20setCharsetitemEffectP6actioni
00000000004be8cc T _Z20setPcMovePointToCharii
0000000000517314 T _Z21Android_getAppVersionPc
000000000046b80c T _Z21GetMapObjectHitPointsiPsS_S_S_S_
00000000004b8928 T _Z21ScriptFunc_ExistItem_iP14ScriptArgument
00000000005107f0 T _Z21getRealWidthFromMapNoiPsS_
00000000004bf6f8 T _Z21goFrontPartyCharacteriii
00000000004045dc T _Z21lssproto_demkstr_charPc
0000000000403870 T _Z21lssproto_mkstr_u_charc
0000000000469ff8 T _Z21selectFieldPetWndTypei
00000000003d04ac T _Z22FromMapClearWinTypeLuaP9lua_State
00000000004b8e40 T _Z22ScriptFunc_NotExistPetiP14ScriptArgument
00000000003d7bc8 T _Z22ScriptFunc_SetStartMapiP14ScriptArgument
000000000051a4cc T _Z22ThirdPartyPostCharInfoiPcS_S_iiS_S_i
000000000047fcbc T _Z22initSelCharGraColorWinv
000000000040e03c T _Z22lssproto_CharList_recviPcS_
0000000000410d58 T _Z22lssproto_CharList_sendi
000000000045a838 T _Z22restorePtActCharObjAllv
00000000004b8a48 T _Z23ScriptFunc_NotExistItemiP14ScriptArgument
0000000000458fb4 T _Z23checkCharObjPointStatusiist
0000000000509460 T _Z23existCharacterListEntryi
000000000045baac T _Z23getItemGraNoFromCharObji
000000000048357c T _Z23initPetSkillWindowType1Pc
000000000040df68 T _Z23lssproto_CharLogin_recviPcS_
0000000000410c98 T _Z23lssproto_CharLogin_sendiPc
00000000004045fc T _Z23lssproto_demkstr_u_charPc
00000000004b8b54 T _Z24ScriptFunc_NotExistItem_iP14ScriptArgument
00000000003da704 T _Z24ScriptFunc_petSkillStateiP14ScriptArgument
000000000045c044 T _Z24createMapObjectAnimationiiii
00000000004f0100 T _Z24lssproto_CHAREFFECT_recviPc
000000000040dec4 T _Z24lssproto_CharDelete_recviPcS_
0000000000410c1c T _Z24lssproto_CharDelete_sendiPc
000000000040e220 T _Z24lssproto_CharLogout_recviPcS_
0000000000410dcc T _Z24lssproto_CharLogout_sendii
000000000045edec T _Z25MessageFontPetItemExtCallPvS_
000000000040406c T _Z25lssproto_mkstr_char_arrayiPc
0000000000459030 T _Z26checkCharObjPointNotStatusiist
0000000000484fc0 T _Z26initSelectStreetVendorSkinPc
0000000000412484 T _Z26lssproto_Petmeetonoff_sendi
000000000040de40 T _Z27lssproto_CreateNewChar_recviPcS_
0000000000410a88 T _Z27lssproto_CreateNewChar_sendiiPciiiiiiiiiii
0000000000404b48 T _Z27lssproto_demkstr_char_arrayPPcS_ii
0000000000404148 T _Z27lssproto_mkstr_u_char_arrayiPh
0000000000404bc0 T _Z29lssproto_demkstr_u_char_arrayPPcPhii
0000000000517ba0 T _Z30Android_ThirdPartyPostCharInfoiPcS_S_iiiS_S_i
00000000003d7f50 T _Z35ScriptFunc_ShowGuideBoxFromItemNameiP14ScriptArgument
00000000003d8020 T _Z36ScriptFunc_ShowGuideBoxFromItemIndexiP14ScriptArgument
00000000004b9768 T _Z6setMapiii
00000000004baf64 T _Z7drawMapv
000000000050979c T _Z7getItemv
00000000004b5748 T _Z7initMapv
00000000004c7dc4 T _Z7openMapv
000000000045b774 T _Z7petProcP6action
00000000004b64f8 T _Z7readMapiiiiiPtS_S_
00000000004c7714 T _Z8InitItemiib
000000000038c624 T _Z8UnZipExeNSt6__ndk112basic_stringIcNS_11char_traitsIcEENS_9allocatorIcEEEE
00000000004bea4c T _Z8_mapMovev
0000000000454290 T _Z8charMoveP6action
0000000000453dd8 T _Z8charProcP6action
00000000004bb88c T _Z8drawMap2v
00000000004bfb58 T _Z8mapMove2v
00000000004b5a40 T _Z8resetMapv
0000000000509ae0 T _Z8swapItemii
00000000004b60b4 T _Z8writeMapiiiiiPtS_S_
0000000000447118 T _Z9InitItem2ii
00000000004c784c T _Z9InitItem3ii
00000000005098fc T _Z9TalkToNPCv
000000000039c5f0 T _Z9UnzipItemP6HZIP__iPKc
000000000039c63c T _Z9UnzipItemP6HZIP__iPvj
0000000000456a90 T _Z9_charMoveP6action
0000000000480258 T _Z9charLoginv
00000000004569a0 T _Z9charMove2P6action
00000000004b5c40 T _Z9createMapiii
00000000004ea804 T _Z9drawMapUiv
00000000004f32b8 T _Z9getItemNov
00000000004bbb38 T _Z9redrawMapv
000000000050d5f4 T _Z9repairMapv
000000000045bcbc T _Z9setMapObjiiiii
000000000038b450 T _Z9urlencodeRNSt6__ndk112basic_stringIcNS_11char_traitsIcEENS_9allocatorIcEEEE
00000000003906fc T _ZN10CIniManage6getMD5ENSt6__ndk112basic_stringIcNS0_11char_traitsIcEENS0_9allocatorIcEEEE
00000000003c2d00 T _ZN10HttpClient12DownloadFileENSt6__ndk112basic_stringIcNS0_11char_traitsIcEENS0_9allocatorIcEEEES6_NS0_8functionIFviiEEENS7_IFviS6_EEE
00000000003c3764 T _ZN10HttpClient20ContinueDownloadFileENSt6__ndk112basic_stringIcNS0_11char_traitsIcEENS0_9allocatorIcEEEES6_NS0_8functionIFviiEEENS7_IFviS6_EEE
00000000003c260c T _ZN10HttpClient6GetUrlENSt6__ndk112basic_stringIcNS0_11char_traitsIcEENS0_9allocatorIcEEEENS0_8functionIFviS6_EEE
00000000003c41ec T _ZN10HttpClient7PostUrlENSt6__ndk112basic_stringIcNS0_11char_traitsIcEENS0_9allocatorIcEEEES6_NS0_8functionIFviS6_EEEb
00000000003c1cf4 T _ZN10HttpClient7TestCDNENSt6__ndk112basic_stringIcNS0_11char_traitsIcEENS0_9allocatorIcEEEEiNS0_8functionIFviS6_EEE
00000000003e9ee4 T _ZN10RangeCoder7GetCharEv
00000000003f871c T _ZN10StringList12GetCharCountEv
0000000000391ff8 T _ZN10WordFilter6censorERNSt6__ndk112basic_stringIcNS0_11char_traitsIcEENS0_9allocatorIcEEEE
000000000039c9f8 T _ZN13ConfigManager6getIntENSt6__ndk112basic_stringIcNS0_11char_traitsIcEENS0_9allocatorIcEEEEi
000000000039ca3c T _ZN13ConfigManager6setIntENSt6__ndk112basic_stringIcNS0_11char_traitsIcEENS0_9allocatorIcEEEEi
000000000039d170 T _ZN13ConfigManager7CalcLenENSt6__ndk112basic_stringIcNS0_11char_traitsIcEENS0_9allocatorIcEEEERNS_7stValueE
000000000039d1cc T _ZN13ConfigManager7FillMemEPcNSt6__ndk112basic_stringIcNS1_11char_traitsIcEENS1_9allocatorIcEEEERNS_7stValueE
000000000039cf58 T _ZN13ConfigManager7map2memEPPcRi
000000000039cc04 T _ZN13ConfigManager7mem2mapEPci
000000000039cae0 T _ZN13ConfigManager9getStringENSt6__ndk112basic_stringIcNS0_11char_traitsIcEENS0_9allocatorIcEEEES6_
000000000039cb58 T _ZN13ConfigManager9setStringENSt6__ndk112basic_stringIcNS0_11char_traitsIcEENS0_9allocatorIcEEEES6_
0000000000434f48 T _ZN4Json10LogicErrorC1ERKNSt6__ndk112basic_stringIcNS1_11char_traitsIcEENS1_9allocatorIcEEEE
0000000000434f48 T _ZN4Json10LogicErrorC2ERKNSt6__ndk112basic_stringIcNS1_11char_traitsIcEENS1_9allocatorIcEEEE
000000000043abec T _ZN4Json12PathArgumentC1ERKNSt6__ndk112basic_stringIcNS1_11char_traitsIcEENS1_9allocatorIcEEEE
000000000043abec T _ZN4Json12PathArgumentC2ERKNSt6__ndk112basic_stringIcNS1_11char_traitsIcEENS1_9allocatorIcEEEE
0000000000434edc T _ZN4Json12RuntimeErrorC1ERKNSt6__ndk112basic_stringIcNS1_11char_traitsIcEENS1_9allocatorIcEEEE
0000000000434edc T _ZN4Json12RuntimeErrorC2ERKNSt6__ndk112basic_stringIcNS1_11char_traitsIcEENS1_9allocatorIcEEEE
000000000043ea38 T _ZN4Json12StyledWriter15writeWithIndentERKNSt6__ndk112basic_stringIcNS1_11char_traitsIcEENS1_9allocatorIcEEEE
000000000043e640 T _ZN4Json12StyledWriter9pushValueERKNSt6__ndk112basic_stringIcNS1_11char_traitsIcEENS1_9allocatorIcEEEE
0000000000430888 W _ZN4Json13OurCharReader5parseEPKcS2_PNS_5ValueEPNSt6__ndk112basic_stringIcNS5_11char_traitsIcEENS5_9allocatorIcEEEE
0000000000430864 W _ZN4Json13OurCharReaderD0Ev
00000000004307b8 W _ZN4Json13OurCharReaderD2Ev
0000000000434d48 T _ZN4Json13ValueIteratorC1ERKNSt6__ndk114__map_iteratorINS1_15__tree_iteratorINS1_12__value_typeINS_5Value8CZStringES5_EEPNS1_11__tree_nodeIS7_PvEElEEEE
0000000000434d48 T _ZN4Json13ValueIteratorC2ERKNSt6__ndk114__map_iteratorINS1_15__tree_iteratorINS1_12__value_typeINS_5Value8CZStringES5_EEPNS1_11__tree_nodeIS7_PvEElEEEE
000000000042fc84 T _ZN4Json15parseFromStreamERKNS_10CharReader7FactoryERNSt6__ndk113basic_istreamIcNS4_11char_traitsIcEEEEPNS_5ValueEPNS4_12basic_stringIcS7_NS4_9allocatorIcEEEE
0000000000434fb4 T _ZN4Json15throwLogicErrorERKNSt6__ndk112basic_stringIcNS0_11char_traitsIcEENS0_9allocatorIcEEEE
000000000042fa80 T _ZN4Json17CharReaderBuilder10strictModeEPNS_5ValueE
000000000042ecc0 T _ZN4Json17CharReaderBuilder11setDefaultsEPNS_5ValueE
000000000042ec6c T _ZN4Json17CharReaderBuilderC1Ev
000000000042ec6c T _ZN4Json17CharReaderBuilderC2Ev
000000000042ef08 T _ZN4Json17CharReaderBuilderD0Ev
000000000042eef4 T _ZN4Json17CharReaderBuilderD1Ev
000000000042eef4 T _ZN4Json17CharReaderBuilderD2Ev
000000000042fa78 T _ZN4Json17CharReaderBuilderixERKNSt6__ndk112basic_stringIcNS1_11char_traitsIcEENS1_9allocatorIcEEEE
0000000000434894 T _ZN4Json17ValueIteratorBaseC1ERKNSt6__ndk114__map_iteratorINS1_15__tree_iteratorINS1_12__value_typeINS_5Value8CZStringES5_EEPNS1_11__tree_nodeIS7_PvEElEEEE
0000000000434894 T _ZN4Json17ValueIteratorBaseC2ERKNSt6__ndk114__map_iteratorINS1_15__tree_iteratorINS1_12__value_typeINS_5Value8CZStringES5_EEPNS1_11__tree_nodeIS7_PvEElEEEE
0000000000434dd8 T _ZN4Json17throwRuntimeErrorERKNSt6__ndk112basic_stringIcNS0_11char_traitsIcEENS0_9allocatorIcEEEE
000000000043ff1c T _ZN4Json18StyledStreamWriter15writeWithIndentERKNSt6__ndk112basic_stringIcNS1_11char_traitsIcEENS1_9allocatorIcEEEE
000000000043ef18 T _ZN4Json18StyledStreamWriter5writeERNSt6__ndk113basic_ostreamIcNS1_11char_traitsIcEEEERKNS_5ValueE
000000000043fb00 T _ZN4Json18StyledStreamWriter9pushValueERKNSt6__ndk112basic_stringIcNS1_11char_traitsIcEENS1_9allocatorIcEEEE
000000000043eed8 T _ZN4Json18StyledStreamWriterC1ENSt6__ndk112basic_stringIcNS1_11char_traitsIcEENS1_9allocatorIcEEEE
000000000043eed8 T _ZN4Json18StyledStreamWriterC2ENSt6__ndk112basic_stringIcNS1_11char_traitsIcEENS1_9allocatorIcEEEE
0000000000434d00 T _ZN4Json18ValueConstIteratorC1ERKNSt6__ndk114__map_iteratorINS1_15__tree_iteratorINS1_12__value_typeINS_5Value8CZStringES5_EEPNS1_11__tree_nodeIS7_PvEElEEEE
0000000000434d00 T _ZN4Json18ValueConstIteratorC2ERKNSt6__ndk114__map_iteratorINS1_15__tree_iteratorINS1_12__value_typeINS_5Value8CZStringES5_EEPNS1_11__tree_nodeIS7_PvEElEEEE
000000000044274c T _ZN4Json19StreamWriterBuilderixERKNSt6__ndk112basic_stringIcNS1_11char_traitsIcEENS1_9allocatorIcEEEE
0000000000441484 T _ZN4Json23BuiltStyledStreamWriter15writeWithIndentERKNSt6__ndk112basic_stringIcNS1_11char_traitsIcEENS1_9allocatorIcEEEE
0000000000440344 T _ZN4Json23BuiltStyledStreamWriter5writeERKNS_5ValueEPNSt6__ndk113basic_ostreamIcNS4_11char_traitsIcEEEE
0000000000440fc8 T _ZN4Json23BuiltStyledStreamWriter9pushValueERKNSt6__ndk112basic_stringIcNS1_11char_traitsIcEENS1_9allocatorIcEEEE
0000000000440280 T _ZN4Json23BuiltStyledStreamWriterC1ENSt6__ndk112basic_stringIcNS1_11char_traitsIcEENS1_9allocatorIcEEEENS_12CommentStyle4EnumES7_S7_S7_bjNS_13PrecisionTypeE
0000000000440280 T _ZN4Json23BuiltStyledStreamWriterC2ENSt6__ndk112basic_stringIcNS1_11char_traitsIcEENS1_9allocatorIcEEEENS_12CommentStyle4EnumES7_S7_S7_bjNS_13PrecisionTypeE
000000000043b450 T _ZN4Json4Path11invalidPathERKNSt6__ndk112basic_stringIcNS1_11char_traitsIcEENS1_9allocatorIcEEEEi
000000000043b3b8 T _ZN4Json4Path12addPathInArgERKNSt6__ndk112basic_stringIcNS1_11char_traitsIcEENS1_9allocatorIcEEEERKNS1_6vectorIPKNS_12PathArgumentENS5_ISD_EEEERNS1_11__wrap_iterIPKSD_EENSB_4KindE
000000000043aed8 T _ZN4Json4Path8makePathERKNSt6__ndk112basic_stringIcNS1_11char_traitsIcEENS1_9allocatorIcEEEERKNS1_6vectorIPKNS_12PathArgumentENS5_ISD_EEEE
000000000043aca0 T _ZN4Json4PathC1ERKNSt6__ndk112basic_stringIcNS1_11char_traitsIcEENS1_9allocatorIcEEEERKNS_12PathArgumentESC_SC_SC_SC_
000000000043aca0 T _ZN4Json4PathC2ERKNSt6__ndk112basic_stringIcNS1_11char_traitsIcEENS1_9allocatorIcEEEERKNS_12PathArgumentESC_SC_SC_SC_
000000000043a5e0 T _ZN4Json5Value10setCommentENSt6__ndk112basic_stringIcNS1_11char_traitsIcEENS1_9allocatorIcEEEENS_16CommentPlacementE
0000000000439c20 T _ZN4Json5Value12removeMemberERKNSt6__ndk112basic_stringIcNS1_11char_traitsIcEENS1_9allocatorIcEEEE
0000000000439aac T _ZN4Json5Value12removeMemberERKNSt6__ndk112basic_stringIcNS1_11char_traitsIcEENS1_9allocatorIcEEEEPS0_
000000000043a558 T _ZN4Json5Value8Comments3setENS_16CommentPlacementENSt6__ndk112basic_stringIcNS3_11char_traitsIcEENS3_9allocatorIcEEEE
0000000000435988 T _ZN4Json5ValueC1ERKNSt6__ndk112basic_stringIcNS1_11char_traitsIcEENS1_9allocatorIcEEEE
0000000000435988 T _ZN4Json5ValueC2ERKNSt6__ndk112basic_stringIcNS1_11char_traitsIcEENS1_9allocatorIcEEEE
000000000043964c T _ZN4Json5ValueixERKNSt6__ndk112basic_stringIcNS1_11char_traitsIcEENS1_9allocatorIcEEEE
000000000042857c T _ZN4Json6Reader11getNextCharEv
0000000000428c44 T _ZN4Json6Reader12decodeStringERNS0_5TokenERNSt6__ndk112basic_stringIcNS3_11char_traitsIcEENS3_9allocatorIcEEEE
000000000042922c T _ZN4Json6Reader18addErrorAndRecoverERKNSt6__ndk112basic_stringIcNS1_11char_traitsIcEENS1_9allocatorIcEEEERNS0_5TokenENS0_9TokenTypeE
00000000004269c4 T _ZN4Json6Reader5parseERKNSt6__ndk112basic_stringIcNS1_11char_traitsIcEENS1_9allocatorIcEEEERNS_5ValueEb
0000000000426e04 T _ZN4Json6Reader5parseERNSt6__ndk113basic_istreamIcNS1_11char_traitsIcEEEERNS_5ValueEb
0000000000427518 T _ZN4Json6Reader8addErrorERKNSt6__ndk112basic_stringIcNS1_11char_traitsIcEENS1_9allocatorIcEEEERNS0_5TokenEPKc
000000000042a7d0 T _ZN4Json6Reader9pushErrorERKNS_5ValueERKNSt6__ndk112basic_stringIcNS4_11char_traitsIcEENS4_9allocatorIcEEEE
000000000042a980 T _ZN4Json6Reader9pushErrorERKNS_5ValueERKNSt6__ndk112basic_stringIcNS4_11char_traitsIcEENS4_9allocatorIcEEEES3_
0000000000434e50 T _ZN4Json9ExceptionC1ENSt6__ndk112basic_stringIcNS1_11char_traitsIcEENS1_9allocatorIcEEEE
0000000000434e50 T _ZN4Json9ExceptionC2ENSt6__ndk112basic_stringIcNS1_11char_traitsIcEENS1_9allocatorIcEEEE
000000000042c9d4 T _ZN4Json9OurReader11getNextCharEv
000000000042d13c T _ZN4Json9OurReader12decodeStringERNS0_5TokenERNSt6__ndk112basic_stringIcNS3_11char_traitsIcEENS3_9allocatorIcEEEE
000000000042d6e4 T _ZN4Json9OurReader18addErrorAndRecoverERKNSt6__ndk112basic_stringIcNS1_11char_traitsIcEENS1_9allocatorIcEEEERNS0_5TokenENS0_9TokenTypeE
000000000042b758 T _ZN4Json9OurReader8addErrorERKNSt6__ndk112basic_stringIcNS1_11char_traitsIcEENS1_9allocatorIcEEEERNS0_5TokenEPKc
000000000042e8d0 T _ZN4Json9OurReader9pushErrorERKNS_5ValueERKNSt6__ndk112basic_stringIcNS4_11char_traitsIcEENS4_9allocatorIcEEEE
000000000042ea80 T _ZN4Json9OurReader9pushErrorERKNS_5ValueERKNSt6__ndk112basic_stringIcNS4_11char_traitsIcEENS4_9allocatorIcEEEES3_
0000000000442928 T _ZN4JsonlsERNSt6__ndk113basic_ostreamIcNS0_11char_traitsIcEEEERKNS_5ValueE
000000000042ff50 T _ZN4JsonrsERNSt6__ndk113basic_istreamIcNS0_11char_traitsIcEEEERNS_5ValueE
000000000038b058 T _ZN7CFileOP12AppParseDiskEPKcRNSt6__ndk112basic_stringIcNS2_11char_traitsIcEENS2_9allocatorIcEEEE
000000000038ae2c T _ZN7CFileOP12AppParsePathEPKcRNSt6__ndk112basic_stringIcNS2_11char_traitsIcEENS2_9allocatorIcEEEE
000000000038b0e0 W _ZN7CFileOP12SpilitStringEPKcRNSt6__ndk112basic_stringIcNS2_11char_traitsIcEENS2_9allocatorIcEEEES9_c
000000000038b300 T _ZN7CFileOP16AppGetModuleFileERNSt6__ndk112basic_stringIcNS0_11char_traitsIcEENS0_9allocatorIcEEEE
000000000038b28c T _ZN7CFileOP16AppParseFileNameEPKcRNSt6__ndk112basic_stringIcNS2_11char_traitsIcEENS2_9allocatorIcEEEES9_
000000000038b284 T _ZN7CFileOP16AppParsePathNameEPKcRNSt6__ndk112basic_stringIcNS2_11char_traitsIcEENS2_9allocatorIcEEEES9_
000000000038b350 T _ZN7CFileOP19AppGetWorkingFolderERNSt6__ndk112basic_stringIcNS0_11char_traitsIcEENS0_9allocatorIcEEEE
000000000038b294 T _ZN7CFileOP19AppParsePathNameExtEPKcRNSt6__ndk112basic_stringIcNS2_11char_traitsIcEENS2_9allocatorIcEEEES9_S9_
000000000038aeb4 W _ZN7CFileOP19RevsereSpilitStringEPKcRNSt6__ndk112basic_stringIcNS2_11char_traitsIcEENS2_9allocatorIcEEEES9_c
000000000038df90 W _ZN7ININodeC2ENSt6__ndk112basic_stringIcNS0_11char_traitsIcEENS0_9allocatorIcEEEES6_S6_
000000000038e1b4 W _ZN7SubNode13InsertElementENSt6__ndk112basic_stringIcNS0_11char_traitsIcEENS0_9allocatorIcEEEES6_
00000000003c5728 T _ZN8CElement10getElementERKNSt6__ndk112basic_stringIcNS0_11char_traitsIcEENS0_9allocatorIcEEEE
00000000003c5900 T _ZN8CElement13getElementMapEv
00000000003c5a70 T _ZN8CElement21getBoolElementDefaultERKNSt6__ndk112basic_stringIcNS0_11char_traitsIcEENS0_9allocatorIcEEEEb
00000000003c5908 T _ZN8CElement21getStringValueDefalutERKNSt6__ndk112basic_stringIcNS0_11char_traitsIcEENS0_9allocatorIcEEEE
00000000003c5a18 T _ZN8CElement23getDoubleElementDefaultERKNSt6__ndk112basic_stringIcNS0_11char_traitsIcEENS0_9allocatorIcEEEEd
00000000003c5968 T _ZN8CElement23getStringElementDefalutERKNSt6__ndk112basic_stringIcNS0_11char_traitsIcEENS0_9allocatorIcEEEES8_
00000000003c59c4 T _ZN8CElement24getIntegerElementDefaultERKNSt6__ndk112basic_stringIcNS0_11char_traitsIcEENS0_9allocatorIcEEEEl
00000000003c5690 T _ZN8CElementC1ERNSt6__ndk13mapINS0_12basic_stringIcNS0_11char_traitsIcEENS0_9allocatorIcEEEEPS_NS0_4lessIS7_EENS5_INS0_4pairIKS7_S8_EEEEEE
00000000003c5690 T _ZN8CElementC2ERNSt6__ndk13mapINS0_12basic_stringIcNS0_11char_traitsIcEENS0_9allocatorIcEEEEPS_NS0_4lessIS7_EENS5_INS0_4pairIKS7_S8_EEEEEE
00000000003c5ac8 T _ZN8CLConfig9loadLFileERKNSt6__ndk112basic_stringIcNS0_11char_traitsIcEENS0_9allocatorIcEEEE
0000000000414ce8 T _ZN8ComboBox13SetDataSourceEP12ComboBoxItem
00000000003eafc0 T _ZN8ModelPPM10DecodeCharEv
0000000000391218 T _ZN8WordNode11insertChildERNSt6__ndk112basic_stringIcNS0_11char_traitsIcEENS0_9allocatorIcEEEE
00000000003911e4 T _ZN8WordNode9findChildERNSt6__ndk112basic_stringIcNS0_11char_traitsIcEENS0_9allocatorIcEEEE
0000000000391118 T _ZN8WordNodeC1ENSt6__ndk112basic_stringIcNS0_11char_traitsIcEENS0_9allocatorIcEEEE
0000000000391118 T _ZN8WordNodeC2ENSt6__ndk112basic_stringIcNS0_11char_traitsIcEENS0_9allocatorIcEEEE
0000000000391938 T _ZN8WordTree12insertBranchEP8WordNodeRNSt6__ndk112basic_stringIcNS2_11char_traitsIcEENS2_9allocatorIcEEEE
000000000039171c T _ZN8WordTree4findEP8WordNodeRNSt6__ndk112basic_stringIcNS2_11char_traitsIcEENS2_9allocatorIcEEEE
0000000000391710 T _ZN8WordTree4findERNSt6__ndk112basic_stringIcNS0_11char_traitsIcEENS0_9allocatorIcEEEE
0000000000391480 T _ZN8WordTree6insertEP8WordNodeRNSt6__ndk112basic_stringIcNS2_11char_traitsIcEENS2_9allocatorIcEEEE
0000000000391460 T _ZN8WordTree6insertERNSt6__ndk112basic_stringIcNS0_11char_traitsIcEENS0_9allocatorIcEEEE
000000000038d58c T _ZN9INIParser7ReadINIENSt6__ndk112basic_stringIcNS0_11char_traitsIcEENS0_9allocatorIcEEEE
000000000038e42c T _ZN9INIParser8GetValueENSt6__ndk112basic_stringIcNS0_11char_traitsIcEENS0_9allocatorIcEEEES6_RS6_S6_
000000000038e670 T _ZN9INIParser8SetValueENSt6__ndk112basic_stringIcNS0_11char_traitsIcEENS0_9allocatorIcEEEES6_S6_
000000000038e4dc T _ZN9INIParser8WriteINIENSt6__ndk112basic_stringIcNS0_11char_traitsIcEENS0_9allocatorIcEEEE
000000000042ef3c T _ZNK4Json17CharReaderBuilder13newCharReaderEv
000000000042f120 T _ZNK4Json17CharReaderBuilder8validateEPNS_5ValueE
00000000004398fc T _ZNK4Json5Value3getERKNSt6__ndk112basic_stringIcNS1_11char_traitsIcEENS1_9allocatorIcEEEERKS0_
0000000000439f18 T _ZNK4Json5Value8isMemberERKNSt6__ndk112basic_stringIcNS1_11char_traitsIcEENS1_9allocatorIcEEEE
000000000043956c T _ZNK4Json5ValueixERKNSt6__ndk112basic_stringIcNS1_11char_traitsIcEENS1_9allocatorIcEEEE
00000000003a5c38 W _ZNKSt6__ndk110__function6__funcIPFvP12ComboBoxItemENS_9allocatorIS5_EES4_E11target_typeEv
00000000003a5c1c W _ZNKSt6__ndk110__function6__funcIPFvP12ComboBoxItemENS_9allocatorIS5_EES4_E6targetERKSt9type_info
00000000003a5bec W _ZNKSt6__ndk110__function6__funcIPFvP12ComboBoxItemENS_9allocatorIS5_EES4_E7__cloneEPNS0_6__baseIS4_EE
00000000003a5bb4 W _ZNKSt6__ndk110__function6__funcIPFvP12ComboBoxItemENS_9allocatorIS5_EES4_E7__cloneEv
0000000000731264 W _ZNKSt6__ndk112basic_stringIcNS_11char_traitsIcEENS_9allocatorIcEEE12find_last_ofEPKcmm
0000000000730a74 W _ZNKSt6__ndk112basic_stringIcNS_11char_traitsIcEENS_9allocatorIcEEE13find_first_ofEPKcmm
0000000000730508 W _ZNKSt6__ndk112basic_stringIcNS_11char_traitsIcEENS_9allocatorIcEEE16find_last_not_ofEPKcmm
00000000007305a0 W _ZNKSt6__ndk112basic_stringIcNS_11char_traitsIcEENS_9allocatorIcEEE17find_first_not_ofEPKcmm
0000000000730910 W _ZNKSt6__ndk112basic_stringIcNS_11char_traitsIcEENS_9allocatorIcEEE2atEm
0000000000730fdc W _ZNKSt6__ndk112basic_stringIcNS_11char_traitsIcEENS_9allocatorIcEEE4copyEPcmm
0000000000731aa4 W _ZNKSt6__ndk112basic_stringIcNS_11char_traitsIcEENS_9allocatorIcEEE4findEPKcmm
0000000000731118 W _ZNKSt6__ndk112basic_stringIcNS_11char_traitsIcEENS_9allocatorIcEEE4findEcm
0000000000730204 W _ZNKSt6__ndk112basic_stringIcNS_11char_traitsIcEENS_9allocatorIcEEE5rfindEPKcmm
0000000000731474 W _ZNKSt6__ndk112basic_stringIcNS_11char_traitsIcEENS_9allocatorIcEEE5rfindEcm
00000000007317c0 W _ZNKSt6__ndk112basic_stringIcNS_11char_traitsIcEENS_9allocatorIcEEE7compareEPKc
00000000007318dc W _ZNKSt6__ndk112basic_stringIcNS_11char_traitsIcEENS_9allocatorIcEEE7compareEmmPKc
0000000000731854 W _ZNKSt6__ndk112basic_stringIcNS_11char_traitsIcEENS_9allocatorIcEEE7compareEmmPKcm
0000000000731b74 W _ZNKSt6__ndk112basic_stringIcNS_11char_traitsIcEENS_9allocatorIcEEE7compareEmmRKS5_mm
0000000000733418 W _ZNKSt6__ndk112basic_stringIwNS_11char_traitsIwEENS_9allocatorIwEEE12find_last_ofEPKwmm
0000000000732c50 W _ZNKSt6__ndk112basic_stringIwNS_11char_traitsIwEENS_9allocatorIwEEE13find_first_ofEPKwmm
0000000000732678 W _ZNKSt6__ndk112basic_stringIwNS_11char_traitsIwEENS_9allocatorIwEEE16find_last_not_ofEPKwmm
0000000000732720 W _ZNKSt6__ndk112basic_stringIwNS_11char_traitsIwEENS_9allocatorIwEEE17find_first_not_ofEPKwmm
0000000000732ad4 W _ZNKSt6__ndk112basic_stringIwNS_11char_traitsIwEENS_9allocatorIwEEE2atEm
0000000000733170 W _ZNKSt6__ndk112basic_stringIwNS_11char_traitsIwEENS_9allocatorIwEEE4copyEPwmm
0000000000733afc W _ZNKSt6__ndk112basic_stringIwNS_11char_traitsIwEENS_9allocatorIwEEE4findEPKwmm
00000000007332c0 W _ZNKSt6__ndk112basic_stringIwNS_11char_traitsIwEENS_9allocatorIwEEE4findEwm
0000000000732364 W _ZNKSt6__ndk112basic_stringIwNS_11char_traitsIwEENS_9allocatorIwEEE5rfindEPKwmm
0000000000733634 W _ZNKSt6__ndk112basic_stringIwNS_11char_traitsIwEENS_9allocatorIwEEE5rfindEwm
0000000000733898 W _ZNKSt6__ndk112basic_stringIwNS_11char_traitsIwEENS_9allocatorIwEEE7compareEPKw
00000000007339bc W _ZNKSt6__ndk112basic_stringIwNS_11char_traitsIwEENS_9allocatorIwEEE7compareEmmPKw
0000000000733930 W _ZNKSt6__ndk112basic_stringIwNS_11char_traitsIwEENS_9allocatorIwEEE7compareEmmPKwm
0000000000733bdc W _ZNKSt6__ndk112basic_stringIwNS_11char_traitsIwEENS_9allocatorIwEEE7compareEmmRKS5_mm
00000000006f1d00 W _ZNKSt6__ndk115basic_streambufIcNS_11char_traitsIcEEE6getlocEv
00000000006f244c W _ZNKSt6__ndk115basic_streambufIwNS_11char_traitsIwEEE6getlocEv
00000000004345e4 W _ZNKSt6__ndk115basic_stringbufIcNS_11char_traitsIcEENS_9allocatorIcEEE3strEv
000000000038aa30 W _ZNKSt6__ndk16__treeINS_12basic_stringIcNS_11char_traitsIcEENS_9allocatorIcEEEENS_4lessIS6_EENS4_IS6_EEE14__count_uniqueIS6_EEmRKT_
00000000006ff954 W _ZNKSt6__ndk17num_getIcNS_19istreambuf_iteratorIcNS_11char_traitsIcEEEEE15__do_get_signedIlEES4_S4_S4_RNS_8ios_baseERjRT_
00000000006ffdf8 W _ZNKSt6__ndk17num_getIcNS_19istreambuf_iteratorIcNS_11char_traitsIcEEEEE15__do_get_signedIxEES4_S4_S4_RNS_8ios_baseERjRT_
0000000000700740 W _ZNKSt6__ndk17num_getIcNS_19istreambuf_iteratorIcNS_11char_traitsIcEEEEE17__do_get_unsignedIjEES4_S4_S4_RNS_8ios_baseERjRT_
0000000000700be4 W _ZNKSt6__ndk17num_getIcNS_19istreambuf_iteratorIcNS_11char_traitsIcEEEEE17__do_get_unsignedImEES4_S4_S4_RNS_8ios_baseERjRT_
000000000070029c W _ZNKSt6__ndk17num_getIcNS_19istreambuf_iteratorIcNS_11char_traitsIcEEEEE17__do_get_unsignedItEES4_S4_S4_RNS_8ios_baseERjRT_
0000000000701088 W _ZNKSt6__ndk17num_getIcNS_19istreambuf_iteratorIcNS_11char_traitsIcEEEEE17__do_get_unsignedIyEES4_S4_S4_RNS_8ios_baseERjRT_
00000000007019b4 W _ZNKSt6__ndk17num_getIcNS_19istreambuf_iteratorIcNS_11char_traitsIcEEEEE23__do_get_floating_pointIdEES4_S4_S4_RNS_8ios_baseERjRT_
0000000000701e3c W _ZNKSt6__ndk17num_getIcNS_19istreambuf_iteratorIcNS_11char_traitsIcEEEEE23__do_get_floating_pointIeEES4_S4_S4_RNS_8ios_baseERjRT_
000000000070152c W _ZNKSt6__ndk17num_getIcNS_19istreambuf_iteratorIcNS_11char_traitsIcEEEEE23__do_get_floating_pointIfEES4_S4_S4_RNS_8ios_baseERjRT_
00000000007022bc W _ZNKSt6__ndk17num_getIcNS_19istreambuf_iteratorIcNS_11char_traitsIcEEEEE6do_getES4_S4_RNS_8ios_baseERjRPv
00000000006ff220 W _ZNKSt6__ndk17num_getIcNS_19istreambuf_iteratorIcNS_11char_traitsIcEEEEE6do_getES4_S4_RNS_8ios_baseERjRb
00000000007019ac W _ZNKSt6__ndk17num_getIcNS_19istreambuf_iteratorIcNS_11char_traitsIcEEEEE6do_getES4_S4_RNS_8ios_baseERjRd
0000000000701e34 W _ZNKSt6__ndk17num_getIcNS_19istreambuf_iteratorIcNS_11char_traitsIcEEEEE6do_getES4_S4_RNS_8ios_baseERjRe
0000000000701524 W _ZNKSt6__ndk17num_getIcNS_19istreambuf_iteratorIcNS_11char_traitsIcEEEEE6do_getES4_S4_RNS_8ios_baseERjRf
00000000006ff94c W _ZNKSt6__ndk17num_getIcNS_19istreambuf_iteratorIcNS_11char_traitsIcEEEEE6do_getES4_S4_RNS_8ios_baseERjRl
0000000000700bdc W _ZNKSt6__ndk17num_getIcNS_19istreambuf_iteratorIcNS_11char_traitsIcEEEEE6do_getES4_S4_RNS_8ios_baseERjRm
0000000000700294 W _ZNKSt6__ndk17num_getIcNS_19istreambuf_iteratorIcNS_11char_traitsIcEEEEE6do_getES4_S4_RNS_8ios_baseERjRt
00000000006ffdf0 W _ZNKSt6__ndk17num_getIcNS_19istreambuf_iteratorIcNS_11char_traitsIcEEEEE6do_getES4_S4_RNS_8ios_baseERjRx
0000000000701080 W _ZNKSt6__ndk17num_getIcNS_19istreambuf_iteratorIcNS_11char_traitsIcEEEEE6do_getES4_S4_RNS_8ios_baseERjRy
0000000000700738 W _ZNKSt6__ndk17num_getIcNS_19istreambuf_iteratorIcNS_11char_traitsIcEEEEE6do_getES4_S4_RNS_8ios_baseERjS8_
0000000000703314 W _ZNKSt6__ndk17num_getIwNS_19istreambuf_iteratorIwNS_11char_traitsIwEEEEE15__do_get_signedIlEES4_S4_S4_RNS_8ios_baseERjRT_
00000000007037ec W _ZNKSt6__ndk17num_getIwNS_19istreambuf_iteratorIwNS_11char_traitsIwEEEEE15__do_get_signedIxEES4_S4_S4_RNS_8ios_baseERjRT_
000000000070419c W _ZNKSt6__ndk17num_getIwNS_19istreambuf_iteratorIwNS_11char_traitsIwEEEEE17__do_get_unsignedIjEES4_S4_S4_RNS_8ios_baseERjRT_
0000000000704674 W _ZNKSt6__ndk17num_getIwNS_19istreambuf_iteratorIwNS_11char_traitsIwEEEEE17__do_get_unsignedImEES4_S4_S4_RNS_8ios_baseERjRT_
0000000000703cc4 W _ZNKSt6__ndk17num_getIwNS_19istreambuf_iteratorIwNS_11char_traitsIwEEEEE17__do_get_unsignedItEES4_S4_S4_RNS_8ios_baseERjRT_
0000000000704b4c W _ZNKSt6__ndk17num_getIwNS_19istreambuf_iteratorIwNS_11char_traitsIwEEEEE17__do_get_unsignedIyEES4_S4_S4_RNS_8ios_baseERjRT_
00000000007054e4 W _ZNKSt6__ndk17num_getIwNS_19istreambuf_iteratorIwNS_11char_traitsIwEEEEE23__do_get_floating_pointIdEES4_S4_S4_RNS_8ios_baseERjRT_
00000000007059a4 W _ZNKSt6__ndk17num_getIwNS_19istreambuf_iteratorIwNS_11char_traitsIwEEEEE23__do_get_floating_pointIeEES4_S4_S4_RNS_8ios_baseERjRT_
0000000000705024 W _ZNKSt6__ndk17num_getIwNS_19istreambuf_iteratorIwNS_11char_traitsIwEEEEE23__do_get_floating_pointIfEES4_S4_S4_RNS_8ios_baseERjRT_
0000000000705e5c W _ZNKSt6__ndk17num_getIwNS_19istreambuf_iteratorIwNS_11char_traitsIwEEEEE6do_getES4_S4_RNS_8ios_baseERjRPv
0000000000702ba4 W _ZNKSt6__ndk17num_getIwNS_19istreambuf_iteratorIwNS_11char_traitsIwEEEEE6do_getES4_S4_RNS_8ios_baseERjRb
00000000007054dc W _ZNKSt6__ndk17num_getIwNS_19istreambuf_iteratorIwNS_11char_traitsIwEEEEE6do_getES4_S4_RNS_8ios_baseERjRd
000000000070599c W _ZNKSt6__ndk17num_getIwNS_19istreambuf_iteratorIwNS_11char_traitsIwEEEEE6do_getES4_S4_RNS_8ios_baseERjRe
000000000070501c W _ZNKSt6__ndk17num_getIwNS_19istreambuf_iteratorIwNS_11char_traitsIwEEEEE6do_getES4_S4_RNS_8ios_baseERjRf
000000000070330c W _ZNKSt6__ndk17num_getIwNS_19istreambuf_iteratorIwNS_11char_traitsIwEEEEE6do_getES4_S4_RNS_8ios_baseERjRl
000000000070466c W _ZNKSt6__ndk17num_getIwNS_19istreambuf_iteratorIwNS_11char_traitsIwEEEEE6do_getES4_S4_RNS_8ios_baseERjRm
0000000000703cbc W _ZNKSt6__ndk17num_getIwNS_19istreambuf_iteratorIwNS_11char_traitsIwEEEEE6do_getES4_S4_RNS_8ios_baseERjRt
00000000007037e4 W _ZNKSt6__ndk17num_getIwNS_19istreambuf_iteratorIwNS_11char_traitsIwEEEEE6do_getES4_S4_RNS_8ios_baseERjRx
0000000000704b44 W _ZNKSt6__ndk17num_getIwNS_19istreambuf_iteratorIwNS_11char_traitsIwEEEEE6do_getES4_S4_RNS_8ios_baseERjRy
0000000000704194 W _ZNKSt6__ndk17num_getIwNS_19istreambuf_iteratorIwNS_11char_traitsIwEEEEE6do_getES4_S4_RNS_8ios_baseERjS8_
0000000000709810 W _ZNKSt6__ndk17num_putIcNS_19ostreambuf_iteratorIcNS_11char_traitsIcEEEEE6do_putES4_RNS_8ios_baseEcPKv
00000000007075a4 W _ZNKSt6__ndk17num_putIcNS_19ostreambuf_iteratorIcNS_11char_traitsIcEEEEE6do_putES4_RNS_8ios_baseEcb
0000000000708784 W _ZNKSt6__ndk17num_putIcNS_19ostreambuf_iteratorIcNS_11char_traitsIcEEEEE6do_putES4_RNS_8ios_baseEcd
00000000007093a8 W _ZNKSt6__ndk17num_putIcNS_19ostreambuf_iteratorIcNS_11char_traitsIcEEEEE6do_putES4_RNS_8ios_baseEce
00000000007077a4 W _ZNKSt6__ndk17num_putIcNS_19ostreambuf_iteratorIcNS_11char_traitsIcEEEEE6do_putES4_RNS_8ios_baseEcl
00000000007082a8 W _ZNKSt6__ndk17num_putIcNS_19ostreambuf_iteratorIcNS_11char_traitsIcEEEEE6do_putES4_RNS_8ios_baseEcm
000000000070803c W _ZNKSt6__ndk17num_putIcNS_19ostreambuf_iteratorIcNS_11char_traitsIcEEEEE6do_putES4_RNS_8ios_baseEcx
0000000000708518 W _ZNKSt6__ndk17num_putIcNS_19ostreambuf_iteratorIcNS_11char_traitsIcEEEEE6do_putES4_RNS_8ios_baseEcy
000000000070bb38 W _ZNKSt6__ndk17num_putIwNS_19ostreambuf_iteratorIwNS_11char_traitsIwEEEEE6do_putES4_RNS_8ios_baseEwPKv
0000000000709a70 W _ZNKSt6__ndk17num_putIwNS_19ostreambuf_iteratorIwNS_11char_traitsIwEEEEE6do_putES4_RNS_8ios_baseEwb
000000000070ac58 W _ZNKSt6__ndk17num_putIwNS_19ostreambuf_iteratorIwNS_11char_traitsIwEEEEE6do_putES4_RNS_8ios_baseEwd
000000000070b6d0 W _ZNKSt6__ndk17num_putIwNS_19ostreambuf_iteratorIwNS_11char_traitsIwEEEEE6do_putES4_RNS_8ios_baseEwe
0000000000709c7c W _ZNKSt6__ndk17num_putIwNS_19ostreambuf_iteratorIwNS_11char_traitsIwEEEEE6do_putES4_RNS_8ios_baseEwl
000000000070a75c W _ZNKSt6__ndk17num_putIwNS_19ostreambuf_iteratorIwNS_11char_traitsIwEEEEE6do_putES4_RNS_8ios_baseEwm
000000000070a4e0 W _ZNKSt6__ndk17num_putIwNS_19ostreambuf_iteratorIwNS_11char_traitsIwEEEEE6do_putES4_RNS_8ios_baseEwx
000000000070a9dc W _ZNKSt6__ndk17num_putIwNS_19ostreambuf_iteratorIwNS_11char_traitsIwEEEEE6do_putES4_RNS_8ios_baseEwy
000000000071617c W _ZNKSt6__ndk18messagesIcE6do_getEliiRKNS_12basic_stringIcNS_11char_traitsIcEENS_9allocatorIcEEEE
0000000000716170 W _ZNKSt6__ndk18messagesIcE7do_openERKNS_12basic_stringIcNS_11char_traitsIcEENS_9allocatorIcEEEERKNS_6localeE
00000000007161a0 W _ZNKSt6__ndk18messagesIwE6do_getEliiRKNS_12basic_stringIwNS_11char_traitsIwEENS_9allocatorIwEEEE
0000000000716194 W _ZNKSt6__ndk18messagesIwE7do_openERKNS_12basic_stringIcNS_11char_traitsIcEENS_9allocatorIcEEEERKNS_6localeE
000000000070d09c W _ZNKSt6__ndk18time_getIcNS_19istreambuf_iteratorIcNS_11char_traitsIcEEEEE10__get_hourERiRS4_S4_RjRKNS_5ctypeIcEE
000000000070c928 W _ZNKSt6__ndk18time_getIcNS_19istreambuf_iteratorIcNS_11char_traitsIcEEEEE10__get_yearERiRS4_S4_RjRKNS_5ctypeIcEE
000000000070d440 W _ZNKSt6__ndk18time_getIcNS_19istreambuf_iteratorIcNS_11char_traitsIcEEEEE11__get_am_pmERiRS4_S4_RjRKNS_5ctypeIcEE
000000000070d1cc W _ZNKSt6__ndk18time_getIcNS_19istreambuf_iteratorIcNS_11char_traitsIcEEEEE11__get_monthERiRS4_S4_RjRKNS_5ctypeIcEE
000000000070d5f0 W _ZNKSt6__ndk18time_getIcNS_19istreambuf_iteratorIcNS_11char_traitsIcEEEEE11__get_year4ERiRS4_S4_RjRKNS_5ctypeIcEE
000000000070c2d0 W _ZNKSt6__ndk18time_getIcNS_19istreambuf_iteratorIcNS_11char_traitsIcEEEEE11do_get_dateES4_S4_RNS_8ios_baseERjP2tm
000000000070c264 W _ZNKSt6__ndk18time_getIcNS_19istreambuf_iteratorIcNS_11char_traitsIcEEEEE11do_get_timeES4_S4_RNS_8ios_baseERjP2tm
000000000070c7e4 W _ZNKSt6__ndk18time_getIcNS_19istreambuf_iteratorIcNS_11char_traitsIcEEEEE11do_get_yearES4_S4_RNS_8ios_baseERjP2tm
000000000070d234 W _ZNKSt6__ndk18time_getIcNS_19istreambuf_iteratorIcNS_11char_traitsIcEEEEE12__get_minuteERiRS4_S4_RjRKNS_5ctypeIcEE
000000000070d528 W _ZNKSt6__ndk18time_getIcNS_19istreambuf_iteratorIcNS_11char_traitsIcEEEEE12__get_secondERiRS4_S4_RjRKNS_5ctypeIcEE
000000000070d100 W _ZNKSt6__ndk18time_getIcNS_19istreambuf_iteratorIcNS_11char_traitsIcEEEEE13__get_12_hourERiRS4_S4_RjRKNS_5ctypeIcEE
000000000070d640 W _ZNKSt6__ndk18time_getIcNS_19istreambuf_iteratorIcNS_11char_traitsIcEEEEE13__get_percentERS4_S4_RjRKNS_5ctypeIcEE
000000000070d58c W _ZNKSt6__ndk18time_getIcNS_19istreambuf_iteratorIcNS_11char_traitsIcEEEEE13__get_weekdayERiRS4_S4_RjRKNS_5ctypeIcEE
000000000070c258 W _ZNKSt6__ndk18time_getIcNS_19istreambuf_iteratorIcNS_11char_traitsIcEEEEE13do_date_orderEv
000000000070c35c W _ZNKSt6__ndk18time_getIcNS_19istreambuf_iteratorIcNS_11char_traitsIcEEEEE14do_get_weekdayES4_S4_RNS_8ios_baseERjP2tm
000000000070c72c W _ZNKSt6__ndk18time_getIcNS_19istreambuf_iteratorIcNS_11char_traitsIcEEEEE15__get_monthnameERiRS4_S4_RjRKNS_5ctypeIcEE
000000000070c5a4 W _ZNKSt6__ndk18time_getIcNS_19istreambuf_iteratorIcNS_11char_traitsIcEEEEE16do_get_monthnameES4_S4_RNS_8ios_baseERjP2tm
000000000070c4e8 W _ZNKSt6__ndk18time_getIcNS_19istreambuf_iteratorIcNS_11char_traitsIcEEEEE17__get_weekdaynameERiRS4_S4_RjRKNS_5ctypeIcEE
000000000070d298 W _ZNKSt6__ndk18time_getIcNS_19istreambuf_iteratorIcNS_11char_traitsIcEEEEE17__get_white_spaceERS4_S4_RjRKNS_5ctypeIcEE
000000000070d168 W _ZNKSt6__ndk18time_getIcNS_19istreambuf_iteratorIcNS_11char_traitsIcEEEEE18__get_day_year_numERiRS4_S4_RjRKNS_5ctypeIcEE
000000000070bd98 W _ZNKSt6__ndk18time_getIcNS_19istreambuf_iteratorIcNS_11char_traitsIcEEEEE3getES4_S4_RNS_8ios_baseERjP2tmPKcSC_
000000000070c990 W _ZNKSt6__ndk18time_getIcNS_19istreambuf_iteratorIcNS_11char_traitsIcEEEEE6do_getES4_S4_RNS_8ios_baseERjP2tmcc
000000000070d034 W _ZNKSt6__ndk18time_getIcNS_19istreambuf_iteratorIcNS_11char_traitsIcEEEEE9__get_dayERiRS4_S4_RjRKNS_5ctypeIcEE
000000000070ee78 W _ZNKSt6__ndk18time_getIwNS_19istreambuf_iteratorIwNS_11char_traitsIwEEEEE10__get_hourERiRS4_S4_RjRKNS_5ctypeIwEE
000000000070e714 W _ZNKSt6__ndk18time_getIwNS_19istreambuf_iteratorIwNS_11char_traitsIwEEEEE10__get_yearERiRS4_S4_RjRKNS_5ctypeIwEE
000000000070f274 W _ZNKSt6__ndk18time_getIwNS_19istreambuf_iteratorIwNS_11char_traitsIwEEEEE11__get_am_pmERiRS4_S4_RjRKNS_5ctypeIwEE
000000000070efa8 W _ZNKSt6__ndk18time_getIwNS_19istreambuf_iteratorIwNS_11char_traitsIwEEEEE11__get_monthERiRS4_S4_RjRKNS_5ctypeIwEE
000000000070f424 W _ZNKSt6__ndk18time_getIwNS_19istreambuf_iteratorIwNS_11char_traitsIwEEEEE11__get_year4ERiRS4_S4_RjRKNS_5ctypeIwEE
000000000070e0b8 W _ZNKSt6__ndk18time_getIwNS_19istreambuf_iteratorIwNS_11char_traitsIwEEEEE11do_get_dateES4_S4_RNS_8ios_baseERjP2tm
000000000070e050 W _ZNKSt6__ndk18time_getIwNS_19istreambuf_iteratorIwNS_11char_traitsIwEEEEE11do_get_timeES4_S4_RNS_8ios_baseERjP2tm
000000000070e5d0 W _ZNKSt6__ndk18time_getIwNS_19istreambuf_iteratorIwNS_11char_traitsIwEEEEE11do_get_yearES4_S4_RNS_8ios_baseERjP2tm
000000000070f010 W _ZNKSt6__ndk18time_getIwNS_19istreambuf_iteratorIwNS_11char_traitsIwEEEEE12__get_minuteERiRS4_S4_RjRKNS_5ctypeIwEE
000000000070f35c W _ZNKSt6__ndk18time_getIwNS_19istreambuf_iteratorIwNS_11char_traitsIwEEEEE12__get_secondERiRS4_S4_RjRKNS_5ctypeIwEE
000000000070eedc W _ZNKSt6__ndk18time_getIwNS_19istreambuf_iteratorIwNS_11char_traitsIwEEEEE13__get_12_hourERiRS4_S4_RjRKNS_5ctypeIwEE
000000000070f474 W _ZNKSt6__ndk18time_getIwNS_19istreambuf_iteratorIwNS_11char_traitsIwEEEEE13__get_percentERS4_S4_RjRKNS_5ctypeIwEE
000000000070f3c0 W _ZNKSt6__ndk18time_getIwNS_19istreambuf_iteratorIwNS_11char_traitsIwEEEEE13__get_weekdayERiRS4_S4_RjRKNS_5ctypeIwEE
000000000070e044 W _ZNKSt6__ndk18time_getIwNS_19istreambuf_iteratorIwNS_11char_traitsIwEEEEE13do_date_orderEv
000000000070e148 W _ZNKSt6__ndk18time_getIwNS_19istreambuf_iteratorIwNS_11char_traitsIwEEEEE14do_get_weekdayES4_S4_RNS_8ios_baseERjP2tm
000000000070e518 W _ZNKSt6__ndk18time_getIwNS_19istreambuf_iteratorIwNS_11char_traitsIwEEEEE15__get_monthnameERiRS4_S4_RjRKNS_5ctypeIwEE
000000000070e390 W _ZNKSt6__ndk18time_getIwNS_19istreambuf_iteratorIwNS_11char_traitsIwEEEEE16do_get_monthnameES4_S4_RNS_8ios_baseERjP2tm
000000000070e2d4 W _ZNKSt6__ndk18time_getIwNS_19istreambuf_iteratorIwNS_11char_traitsIwEEEEE17__get_weekdaynameERiRS4_S4_RjRKNS_5ctypeIwEE
000000000070f074 W _ZNKSt6__ndk18time_getIwNS_19istreambuf_iteratorIwNS_11char_traitsIwEEEEE17__get_white_spaceERS4_S4_RjRKNS_5ctypeIwEE
000000000070ef44 W _ZNKSt6__ndk18time_getIwNS_19istreambuf_iteratorIwNS_11char_traitsIwEEEEE18__get_day_year_numERiRS4_S4_RjRKNS_5ctypeIwEE
000000000070db24 W _ZNKSt6__ndk18time_getIwNS_19istreambuf_iteratorIwNS_11char_traitsIwEEEEE3getES4_S4_RNS_8ios_baseERjP2tmPKwSC_
000000000070e77c W _ZNKSt6__ndk18time_getIwNS_19istreambuf_iteratorIwNS_11char_traitsIwEEEEE6do_getES4_S4_RNS_8ios_baseERjP2tmcc
000000000070ee10 W _ZNKSt6__ndk18time_getIwNS_19istreambuf_iteratorIwNS_11char_traitsIwEEEEE9__get_dayERiRS4_S4_RjRKNS_5ctypeIwEE
000000000070fa04 W _ZNKSt6__ndk18time_putIcNS_19ostreambuf_iteratorIcNS_11char_traitsIcEEEEE3putES4_RNS_8ios_baseEcPK2tmPKcSC_
000000000070fcd4 W _ZNKSt6__ndk18time_putIcNS_19ostreambuf_iteratorIcNS_11char_traitsIcEEEEE6do_putES4_RNS_8ios_baseEcPK2tmcc
000000000070fe5c W _ZNKSt6__ndk18time_putIwNS_19ostreambuf_iteratorIwNS_11char_traitsIwEEEEE3putES4_RNS_8ios_baseEwPK2tmPKwSC_
000000000071013c W _ZNKSt6__ndk18time_putIwNS_19ostreambuf_iteratorIwNS_11char_traitsIwEEEEE6do_putES4_RNS_8ios_baseEwPK2tmcc
0000000000711e50 W _ZNKSt6__ndk19money_getIcNS_19istreambuf_iteratorIcNS_11char_traitsIcEEEEE6do_getES4_S4_bRNS_8ios_baseERjRNS_12basic_stringIcS3_NS_9allocatorIcEEEE
00000000007107a8 W _ZNKSt6__ndk19money_getIcNS_19istreambuf_iteratorIcNS_11char_traitsIcEEEEE6do_getES4_S4_bRNS_8ios_baseERjRe
0000000000713c24 W _ZNKSt6__ndk19money_getIwNS_19istreambuf_iteratorIwNS_11char_traitsIwEEEEE6do_getES4_S4_bRNS_8ios_baseERjRNS_12basic_stringIwS3_NS_9allocatorIwEEEE
0000000000712484 W _ZNKSt6__ndk19money_getIwNS_19istreambuf_iteratorIwNS_11char_traitsIwEEEEE6do_getES4_S4_bRNS_8ios_baseERjRe
0000000000714e04 W _ZNKSt6__ndk19money_putIcNS_19ostreambuf_iteratorIcNS_11char_traitsIcEEEEE6do_putES4_bRNS_8ios_baseEcRKNS_12basic_stringIcS3_NS_9allocatorIcEEEE
0000000000714178 W _ZNKSt6__ndk19money_putIcNS_19ostreambuf_iteratorIcNS_11char_traitsIcEEEEE6do_putES4_bRNS_8ios_baseEce
0000000000715db0 W _ZNKSt6__ndk19money_putIwNS_19ostreambuf_iteratorIwNS_11char_traitsIwEEEEE6do_putES4_bRNS_8ios_baseEwRKNS_12basic_stringIwS3_NS_9allocatorIwEEEE
00000000007151bc W _ZNKSt6__ndk19money_putIwNS_19ostreambuf_iteratorIwNS_11char_traitsIwEEEEE6do_putES4_bRNS_8ios_baseEwe
000000000072fb0c T _ZNSt11logic_errorC1ERKNSt6__ndk112basic_stringIcNS0_11char_traitsIcEENS0_9allocatorIcEEEE
000000000072fb0c T _ZNSt11logic_errorC2ERKNSt6__ndk112basic_stringIcNS0_11char_traitsIcEENS0_9allocatorIcEEEE
000000000072fcc4 T _ZNSt13runtime_errorC1ERKNSt6__ndk112basic_stringIcNS0_11char_traitsIcEENS0_9allocatorIcEEEE
000000000072fcc4 T _ZNSt13runtime_errorC2ERKNSt6__ndk112basic_stringIcNS0_11char_traitsIcEENS0_9allocatorIcEEEE
00000000003a5c08 W _ZNSt6__ndk110__function6__funcIPFvP12ComboBoxItemENS_9allocatorIS5_EES4_E18destroy_deallocateEv
00000000003a5c04 W _ZNSt6__ndk110__function6__funcIPFvP12ComboBoxItemENS_9allocatorIS5_EES4_E7destroyEv
00000000003a5bb0 W _ZNSt6__ndk110__function6__funcIPFvP12ComboBoxItemENS_9allocatorIS5_EES4_ED0Ev
00000000003a5c0c W _ZNSt6__ndk110__function6__funcIPFvP12ComboBoxItemENS_9allocatorIS5_EES4_EclEOS3_
000000000072698c T _ZNSt6__ndk110__time_getC1ERKNS_12basic_stringIcNS_11char_traitsIcEENS_9allocatorIcEEEE
000000000072698c T _ZNSt6__ndk110__time_getC2ERKNS_12basic_stringIcNS_11char_traitsIcEENS_9allocatorIcEEEE
000000000072a098 T _ZNSt6__ndk110__time_putC1ERKNS_12basic_stringIcNS_11char_traitsIcEENS_9allocatorIcEEEE
000000000072a098 T _ZNSt6__ndk110__time_putC2ERKNS_12basic_stringIcNS_11char_traitsIcEENS_9allocatorIcEEEE
000000000071212c W _ZNSt6__ndk111__money_getIcE13__gather_infoEbRKNS_6localeERNS_10money_base7patternERcS8_RNS_12basic_stringIcNS_11char_traitsIcEENS_9allocatorIcEEEESF_SF_SF_Ri
0000000000713f18 W _ZNSt6__ndk111__money_getIwE13__gather_infoEbRKNS_6localeERNS_10money_base7patternERwS8_RNS_12basic_stringIcNS_11char_traitsIcEENS_9allocatorIcEEEERNS9_IwNSA_IwEENSC_IwEEEESJ_SJ_Ri
00000000007146dc W _ZNSt6__ndk111__money_putIcE13__gather_infoEbbRKNS_6localeERNS_10money_base7patternERcS8_RNS_12basic_stringIcNS_11char_traitsIcEENS_9allocatorIcEEEESF_SF_Ri
0000000000714928 W _ZNSt6__ndk111__money_putIcE8__formatEPcRS2_S3_jPKcS5_RKNS_5ctypeIcEEbRKNS_10money_base7patternEccRKNS_12basic_stringIcNS_11char_traitsIcEENS_9allocatorIcEEEESL_SL_i
000000000071567c W _ZNSt6__ndk111__money_putIwE13__gather_infoEbbRKNS_6localeERNS_10money_base7patternERwS8_RNS_12basic_stringIcNS_11char_traitsIcEENS_9allocatorIcEEEERNS9_IwNSA_IwEENSC_IwEEEESJ_Ri
00000000007158c8 W _ZNSt6__ndk111__money_putIwE8__formatEPwRS2_S3_jPKwS5_RKNS_5ctypeIwEEbRKNS_10money_base7patternEwwRKNS_12basic_stringIcNS_11char_traitsIcEENS_9allocatorIcEEEERKNSE_IwNSF_IwEENSH_IwEEEESQ_i
00000000007321d8 W _ZNSt6__ndk111char_traitsIwE4moveEPwPKwm
00000000007300c4 W _ZNSt6__ndk112basic_stringIcNS_11char_traitsIcEENS_9allocatorIcEEE21__grow_by_and_replaceEmmmmmmPKc
000000000072e120 W _ZNSt6__ndk112basic_stringIcNS_11char_traitsIcEENS_9allocatorIcEEE23__append_forward_unsafeIPcEERS5_T_S9_
0000000000731990 W _ZNSt6__ndk112basic_stringIcNS_11char_traitsIcEENS_9allocatorIcEEE2atEm
00000000002d1868 V _ZNSt6__ndk112basic_stringIcNS_11char_traitsIcEENS_9allocatorIcEEE4nposE
00000000007315f0 W _ZNSt6__ndk112basic_stringIcNS_11char_traitsIcEENS_9allocatorIcEEE5eraseEmm
0000000000730880 W _ZNSt6__ndk112basic_stringIcNS_11char_traitsIcEENS_9allocatorIcEEE6__initEPKcm
00000000007302c8 W _ZNSt6__ndk112basic_stringIcNS_11char_traitsIcEENS_9allocatorIcEEE6__initEPKcmm
0000000000731188 W _ZNSt6__ndk112basic_stringIcNS_11char_traitsIcEENS_9allocatorIcEEE6__initEmc
0000000000731d38 W _ZNSt6__ndk112basic_stringIcNS_11char_traitsIcEENS_9allocatorIcEEE6appendEPKc
0000000000730e1c W _ZNSt6__ndk112basic_stringIcNS_11char_traitsIcEENS_9allocatorIcEEE6appendEPKcm
00000000007316c0 W _ZNSt6__ndk112basic_stringIcNS_11char_traitsIcEENS_9allocatorIcEEE6appendERKS5_mm
0000000000731398 W _ZNSt6__ndk112basic_stringIcNS_11char_traitsIcEENS_9allocatorIcEEE6appendEmc
00000000007319d8 W _ZNSt6__ndk112basic_stringIcNS_11char_traitsIcEENS_9allocatorIcEEE6assignEPKc
0000000000730c1c W _ZNSt6__ndk112basic_stringIcNS_11char_traitsIcEENS_9allocatorIcEEE6assignEPKcm
0000000000730ee8 W _ZNSt6__ndk112basic_stringIcNS_11char_traitsIcEENS_9allocatorIcEEE6assignERKS5_mm
00000000007314c0 W _ZNSt6__ndk112basic_stringIcNS_11char_traitsIcEENS_9allocatorIcEEE6assignEmc
0000000000731e68 W _ZNSt6__ndk112basic_stringIcNS_11char_traitsIcEENS_9allocatorIcEEE6insertENS_11__wrap_iterIPKcEEc
0000000000731218 W _ZNSt6__ndk112basic_stringIcNS_11char_traitsIcEENS_9allocatorIcEEE6insertEmPKc
0000000000730958 W _ZNSt6__ndk112basic_stringIcNS_11char_traitsIcEENS_9allocatorIcEEE6insertEmPKcm
0000000000731fb0 W _ZNSt6__ndk112basic_stringIcNS_11char_traitsIcEENS_9allocatorIcEEE6insertEmRKS5_mm
000000000073062c W _ZNSt6__ndk112basic_stringIcNS_11char_traitsIcEENS_9allocatorIcEEE6insertEmmc
0000000000731f4c W _ZNSt6__ndk112basic_stringIcNS_11char_traitsIcEENS_9allocatorIcEEE6resizeEmc
0000000000730408 W _ZNSt6__ndk112basic_stringIcNS_11char_traitsIcEENS_9allocatorIcEEE7replaceEmmPKc
000000000072ff00 W _ZNSt6__ndk112basic_stringIcNS_11char_traitsIcEENS_9allocatorIcEEE7replaceEmmPKcm
0000000000731e18 W _ZNSt6__ndk112basic_stringIcNS_11char_traitsIcEENS_9allocatorIcEEE7replaceEmmRKS5_mm
0000000000730aec W _ZNSt6__ndk112basic_stringIcNS_11char_traitsIcEENS_9allocatorIcEEE7replaceEmmmc
0000000000730ce0 W _ZNSt6__ndk112basic_stringIcNS_11char_traitsIcEENS_9allocatorIcEEE7reserveEm
0000000000730734 W _ZNSt6__ndk112basic_stringIcNS_11char_traitsIcEENS_9allocatorIcEEE9__grow_byEmmmmmm
00000000007312e4 W _ZNSt6__ndk112basic_stringIcNS_11char_traitsIcEENS_9allocatorIcEEE9push_backEc
000000000073035c W _ZNSt6__ndk112basic_stringIcNS_11char_traitsIcEENS_9allocatorIcEEEC1ERKS5_
000000000073045c W _ZNSt6__ndk112basic_stringIcNS_11char_traitsIcEENS_9allocatorIcEEEC1ERKS5_RKS4_
000000000073104c W _ZNSt6__ndk112basic_stringIcNS_11char_traitsIcEENS_9allocatorIcEEEC1ERKS5_mmRKS4_
000000000073035c W _ZNSt6__ndk112basic_stringIcNS_11char_traitsIcEENS_9allocatorIcEEEC2ERKS5_
000000000073045c W _ZNSt6__ndk112basic_stringIcNS_11char_traitsIcEENS_9allocatorIcEEEC2ERKS5_RKS4_
000000000073104c W _ZNSt6__ndk112basic_stringIcNS_11char_traitsIcEENS_9allocatorIcEEEC2ERKS5_mmRKS4_
00000000003da0c0 W _ZNSt6__ndk112basic_stringIcNS_11char_traitsIcEENS_9allocatorIcEEEC2IDnEEPKc
0000000000730588 W _ZNSt6__ndk112basic_stringIcNS_11char_traitsIcEENS_9allocatorIcEEED1Ev
0000000000730588 W _ZNSt6__ndk112basic_stringIcNS_11char_traitsIcEENS_9allocatorIcEEED2Ev
0000000000731c2c W _ZNSt6__ndk112basic_stringIcNS_11char_traitsIcEENS_9allocatorIcEEEaSERKS5_
000000000073084c W _ZNSt6__ndk112basic_stringIcNS_11char_traitsIcEENS_9allocatorIcEEEaSEc
00000000007321fc W _ZNSt6__ndk112basic_stringIwNS_11char_traitsIwEENS_9allocatorIwEEE21__grow_by_and_replaceEmmmmmmPKw
000000000072e39c W _ZNSt6__ndk112basic_stringIwNS_11char_traitsIwEENS_9allocatorIwEEE23__append_forward_unsafeIPwEERS5_T_S9_
0000000000733a74 W _ZNSt6__ndk112basic_stringIwNS_11char_traitsIwEENS_9allocatorIwEEE2atEm
00000000002d1870 V _ZNSt6__ndk112basic_stringIwNS_11char_traitsIwEENS_9allocatorIwEEE4nposE
000000000073376c W _ZNSt6__ndk112basic_stringIwNS_11char_traitsIwEENS_9allocatorIwEEE5eraseEmm
0000000000732a3c W _ZNSt6__ndk112basic_stringIwNS_11char_traitsIwEENS_9allocatorIwEEE6__initEPKwm
0000000000732438 W _ZNSt6__ndk112basic_stringIwNS_11char_traitsIwEENS_9allocatorIwEEE6__initEPKwmm
0000000000733334 W _ZNSt6__ndk112basic_stringIwNS_11char_traitsIwEENS_9allocatorIwEEE6__initEmw
0000000000733db4 W _ZNSt6__ndk112basic_stringIwNS_11char_traitsIwEENS_9allocatorIwEEE6appendEPKw
0000000000733048 W _ZNSt6__ndk112basic_stringIwNS_11char_traitsIwEENS_9allocatorIwEEE6appendEPKwm
0000000000733844 W _ZNSt6__ndk112basic_stringIwNS_11char_traitsIwEENS_9allocatorIwEEE6appendERKS5_mm
0000000000733550 W _ZNSt6__ndk112basic_stringIwNS_11char_traitsIwEENS_9allocatorIwEEE6appendEmw
0000000000733ac0 W _ZNSt6__ndk112basic_stringIwNS_11char_traitsIwEENS_9allocatorIwEEE6assignEPKw
0000000000732e0c W _ZNSt6__ndk112basic_stringIwNS_11char_traitsIwEENS_9allocatorIwEEE6assignEPKwm
000000000073311c W _ZNSt6__ndk112basic_stringIwNS_11char_traitsIwEENS_9allocatorIwEEE6assignERKS5_mm
000000000073368c W _ZNSt6__ndk112basic_stringIwNS_11char_traitsIwEENS_9allocatorIwEEE6assignEmw
0000000000733e44 W _ZNSt6__ndk112basic_stringIwNS_11char_traitsIwEENS_9allocatorIwEEE6insertENS_11__wrap_iterIPKwEEw
00000000007333cc W _ZNSt6__ndk112basic_stringIwNS_11char_traitsIwEENS_9allocatorIwEEE6insertEmPKw
0000000000732b20 W _ZNSt6__ndk112basic_stringIwNS_11char_traitsIwEENS_9allocatorIwEEE6insertEmPKwm
0000000000733f94 W _ZNSt6__ndk112basic_stringIwNS_11char_traitsIwEENS_9allocatorIwEEE6insertEmRKS5_mm
00000000007327bc W _ZNSt6__ndk112basic_stringIwNS_11char_traitsIwEENS_9allocatorIwEEE6insertEmmw
0000000000733f30 W _ZNSt6__ndk112basic_stringIwNS_11char_traitsIwEENS_9allocatorIwEEE6resizeEmw
000000000073257c W _ZNSt6__ndk112basic_stringIwNS_11char_traitsIwEENS_9allocatorIwEEE7replaceEmmPKw
0000000000732000 W _ZNSt6__ndk112basic_stringIwNS_11char_traitsIwEENS_9allocatorIwEEE7replaceEmmPKwm
0000000000733df0 W _ZNSt6__ndk112basic_stringIwNS_11char_traitsIwEENS_9allocatorIwEEE7replaceEmmRKS5_mm
0000000000732cd0 W _ZNSt6__ndk112basic_stringIwNS_11char_traitsIwEENS_9allocatorIwEEE7replaceEmmmw
0000000000732ed8 W _ZNSt6__ndk112basic_stringIwNS_11char_traitsIwEENS_9allocatorIwEEE7reserveEm
00000000007328d0 W _ZNSt6__ndk112basic_stringIwNS_11char_traitsIwEENS_9allocatorIwEEE9__grow_byEmmmmmm
00000000007334a0 W _ZNSt6__ndk112basic_stringIwNS_11char_traitsIwEENS_9allocatorIwEEE9push_backEw
00000000007324d4 W _ZNSt6__ndk112basic_stringIwNS_11char_traitsIwEENS_9allocatorIwEEEC1ERKS5_
00000000007325d0 W _ZNSt6__ndk112basic_stringIwNS_11char_traitsIwEENS_9allocatorIwEEEC1ERKS5_RKS4_
00000000007331e8 W _ZNSt6__ndk112basic_stringIwNS_11char_traitsIwEENS_9allocatorIwEEEC1ERKS5_mmRKS4_
00000000007324d4 W _ZNSt6__ndk112basic_stringIwNS_11char_traitsIwEENS_9allocatorIwEEEC2ERKS5_
00000000007325d0 W _ZNSt6__ndk112basic_stringIwNS_11char_traitsIwEENS_9allocatorIwEEEC2ERKS5_RKS4_
00000000007331e8 W _ZNSt6__ndk112basic_stringIwNS_11char_traitsIwEENS_9allocatorIwEEEC2ERKS5_mmRKS4_
0000000000724ff0 W _ZNSt6__ndk112basic_stringIwNS_11char_traitsIwEENS_9allocatorIwEEEC2IDnEEPKw
0000000000732708 W _ZNSt6__ndk112basic_stringIwNS_11char_traitsIwEENS_9allocatorIwEEED1Ev
0000000000732708 W _ZNSt6__ndk112basic_stringIwNS_11char_traitsIwEENS_9allocatorIwEEED2Ev
0000000000733c9c W _ZNSt6__ndk112basic_stringIwNS_11char_traitsIwEENS_9allocatorIwEEEaSERKS5_
0000000000732a08 W _ZNSt6__ndk112basic_stringIwNS_11char_traitsIwEENS_9allocatorIwEEEaSEw
0000000000720158 T _ZNSt6__ndk112ctype_bynameIcEC1ERKNS_12basic_stringIcNS_11char_traitsIcEENS_9allocatorIcEEEEm
0000000000720158 T _ZNSt6__ndk112ctype_bynameIcEC2ERKNS_12basic_stringIcNS_11char_traitsIcEENS_9allocatorIcEEEEm
00000000007204d4 T _ZNSt6__ndk112ctype_bynameIwEC1ERKNS_12basic_stringIcNS_11char_traitsIcEENS_9allocatorIcEEEEm
00000000007204d4 T _ZNSt6__ndk112ctype_bynameIwEC2ERKNS_12basic_stringIcNS_11char_traitsIcEENS_9allocatorIcEEEEm
0000000000738528 T _ZNSt6__ndk112system_error6__initERKNS_10error_codeENS_12basic_stringIcNS_11char_traitsIcEENS_9allocatorIcEEEE
0000000000738638 T _ZNSt6__ndk112system_errorC1ENS_10error_codeERKNS_12basic_stringIcNS_11char_traitsIcEENS_9allocatorIcEEEE
000000000073899c T _ZNSt6__ndk112system_errorC1EiRKNS_14error_categoryERKNS_12basic_stringIcNS_11char_traitsIcEENS_9allocatorIcEEEE
0000000000738638 T _ZNSt6__ndk112system_errorC2ENS_10error_codeERKNS_12basic_stringIcNS_11char_traitsIcEENS_9allocatorIcEEEE
000000000073899c T _ZNSt6__ndk112system_errorC2EiRKNS_14error_categoryERKNS_12basic_stringIcNS_11char_traitsIcEENS_9allocatorIcEEEE
00000000003928e0 W _ZNSt6__ndk113basic_filebufIcNS_11char_traitsIcEEE4syncEv
00000000003925c8 W _ZNSt6__ndk113basic_filebufIcNS_11char_traitsIcEEE5imbueERKNS_6localeE
00000000003926b8 W _ZNSt6__ndk113basic_filebufIcNS_11char_traitsIcEEE6setbufEPcl
00000000003927b0 W _ZNSt6__ndk113basic_filebufIcNS_11char_traitsIcEEE7seekoffExNS_8ios_base7seekdirEj
0000000000392870 W _ZNSt6__ndk113basic_filebufIcNS_11char_traitsIcEEE7seekposENS_4fposI9mbstate_tEEj
0000000000392d9c W _ZNSt6__ndk113basic_filebufIcNS_11char_traitsIcEEE8overflowEi
0000000000392d3c W _ZNSt6__ndk113basic_filebufIcNS_11char_traitsIcEEE9pbackfailEi
0000000000392ad0 W _ZNSt6__ndk113basic_filebufIcNS_11char_traitsIcEEE9underflowEv
00000000003933e8 W _ZNSt6__ndk113basic_filebufIcNS_11char_traitsIcEEEC2Ev
00000000003925a4 W _ZNSt6__ndk113basic_filebufIcNS_11char_traitsIcEEED0Ev
00000000003924cc W _ZNSt6__ndk113basic_filebufIcNS_11char_traitsIcEEED2Ev
00000000006f48d8 W _ZNSt6__ndk113basic_istreamIcNS_11char_traitsIcEEE3getEPcl
00000000006f49a8 W _ZNSt6__ndk113basic_istreamIcNS_11char_traitsIcEEE3getEPclc
00000000006f4bdc W _ZNSt6__ndk113basic_istreamIcNS_11char_traitsIcEEE3getERNS_15basic_streambufIcS2_EE
00000000006f4c9c W _ZNSt6__ndk113basic_istreamIcNS_11char_traitsIcEEE3getERNS_15basic_streambufIcS2_EEc
00000000006f489c W _ZNSt6__ndk113basic_istreamIcNS_11char_traitsIcEEE3getERc
00000000006f4730 W _ZNSt6__ndk113basic_istreamIcNS_11char_traitsIcEEE3getEv
00000000006f5380 W _ZNSt6__ndk113basic_istreamIcNS_11char_traitsIcEEE4peekEv
00000000006f54d4 W _ZNSt6__ndk113basic_istreamIcNS_11char_traitsIcEEE4readEPcl
00000000006f2cc0 W _ZNSt6__ndk113basic_istreamIcNS_11char_traitsIcEEE4swapERS3_
00000000006f5b10 W _ZNSt6__ndk113basic_istreamIcNS_11char_traitsIcEEE4syncEv
00000000006f5d84 W _ZNSt6__ndk113basic_istreamIcNS_11char_traitsIcEEE5seekgENS_4fposI9mbstate_tEE
00000000006f5f00 W _ZNSt6__ndk113basic_istreamIcNS_11char_traitsIcEEE5seekgExNS_8ios_base7seekdirE
00000000006f5c44 W _ZNSt6__ndk113basic_istreamIcNS_11char_traitsIcEEE5tellgEv
00000000006f597c W _ZNSt6__ndk113basic_istreamIcNS_11char_traitsIcEEE5ungetEv
00000000006f5188 W _ZNSt6__ndk113basic_istreamIcNS_11char_traitsIcEEE6ignoreEli
00000000006f2d2c W _ZNSt6__ndk113basic_istreamIcNS_11char_traitsIcEEE6sentryC1ERS3_b
00000000006f2d2c W _ZNSt6__ndk113basic_istreamIcNS_11char_traitsIcEEE6sentryC2ERS3_b
00000000006f4e58 W _ZNSt6__ndk113basic_istreamIcNS_11char_traitsIcEEE7getlineEPcl
00000000006f4f28 W _ZNSt6__ndk113basic_istreamIcNS_11char_traitsIcEEE7getlineEPclc
00000000006f57d4 W _ZNSt6__ndk113basic_istreamIcNS_11char_traitsIcEEE7putbackEc
00000000006f5628 W _ZNSt6__ndk113basic_istreamIcNS_11char_traitsIcEEE8readsomeEPcl
00000000006f2ba0 W _ZNSt6__ndk113basic_istreamIcNS_11char_traitsIcEEEC1EPNS_15basic_streambufIcS2_EE
00000000006f2b0c W _ZNSt6__ndk113basic_istreamIcNS_11char_traitsIcEEEC2EPNS_15basic_streambufIcS2_EE
00000000006f2c58 W _ZNSt6__ndk113basic_istreamIcNS_11char_traitsIcEEED0Ev
00000000006f2c34 W _ZNSt6__ndk113basic_istreamIcNS_11char_traitsIcEEED1Ev
00000000006f2c2c W _ZNSt6__ndk113basic_istreamIcNS_11char_traitsIcEEED2Ev
00000000006f30f0 W _ZNSt6__ndk113basic_istreamIcNS_11char_traitsIcEEErsEPFRNS_8ios_baseES5_E
00000000006f30b8 W _ZNSt6__ndk113basic_istreamIcNS_11char_traitsIcEEErsEPFRNS_9basic_iosIcS2_EES6_E
00000000006f30ac W _ZNSt6__ndk113basic_istreamIcNS_11char_traitsIcEEErsEPFRS3_S4_E
00000000006f3128 W _ZNSt6__ndk113basic_istreamIcNS_11char_traitsIcEEErsEPNS_15basic_streambufIcS2_EE
00000000006f45b0 W _ZNSt6__ndk113basic_istreamIcNS_11char_traitsIcEEErsERPv
00000000006f332c W _ZNSt6__ndk113basic_istreamIcNS_11char_traitsIcEEErsERb
00000000006f42b0 W _ZNSt6__ndk113basic_istreamIcNS_11char_traitsIcEEErsERd
00000000006f4430 W _ZNSt6__ndk113basic_istreamIcNS_11char_traitsIcEEErsERe
00000000006f4130 W _ZNSt6__ndk113basic_istreamIcNS_11char_traitsIcEEErsERf
00000000006f37ec W _ZNSt6__ndk113basic_istreamIcNS_11char_traitsIcEEErsERi
00000000006f39b0 W _ZNSt6__ndk113basic_istreamIcNS_11char_traitsIcEEErsERj
00000000006f3b30 W _ZNSt6__ndk113basic_istreamIcNS_11char_traitsIcEEErsERl
00000000006f3cb0 W _ZNSt6__ndk113basic_istreamIcNS_11char_traitsIcEEErsERm
00000000006f34ac W _ZNSt6__ndk113basic_istreamIcNS_11char_traitsIcEEErsERs
00000000006f366c W _ZNSt6__ndk113basic_istreamIcNS_11char_traitsIcEEErsERt
00000000006f3e30 W _ZNSt6__ndk113basic_istreamIcNS_11char_traitsIcEEErsERx
00000000006f3fb0 W _ZNSt6__ndk113basic_istreamIcNS_11char_traitsIcEEErsERy
00000000006f7e4c W _ZNSt6__ndk113basic_istreamIwNS_11char_traitsIwEEE3getEPwl
00000000006f7f1c W _ZNSt6__ndk113basic_istreamIwNS_11char_traitsIwEEE3getEPwlw
00000000006f814c W _ZNSt6__ndk113basic_istreamIwNS_11char_traitsIwEEE3getERNS_15basic_streambufIwS2_EE
00000000006f820c W _ZNSt6__ndk113basic_istreamIwNS_11char_traitsIwEEE3getERNS_15basic_streambufIwS2_EEw
00000000006f7e10 W _ZNSt6__ndk113basic_istreamIwNS_11char_traitsIwEEE3getERw
00000000006f7ca4 W _ZNSt6__ndk113basic_istreamIwNS_11char_traitsIwEEE3getEv
00000000006f88dc W _ZNSt6__ndk113basic_istreamIwNS_11char_traitsIwEEE4peekEv
00000000006f8a30 W _ZNSt6__ndk113basic_istreamIwNS_11char_traitsIwEEE4readEPwl
00000000006f6230 W _ZNSt6__ndk113basic_istreamIwNS_11char_traitsIwEEE4swapERS3_
00000000006f9088 W _ZNSt6__ndk113basic_istreamIwNS_11char_traitsIwEEE4syncEv
00000000006f92fc W _ZNSt6__ndk113basic_istreamIwNS_11char_traitsIwEEE5seekgENS_4fposI9mbstate_tEE
00000000006f9478 W _ZNSt6__ndk113basic_istreamIwNS_11char_traitsIwEEE5seekgExNS_8ios_base7seekdirE
00000000006f91bc W _ZNSt6__ndk113basic_istreamIwNS_11char_traitsIwEEE5tellgEv
00000000006f8ee8 W _ZNSt6__ndk113basic_istreamIwNS_11char_traitsIwEEE5ungetEv
00000000006f86e8 W _ZNSt6__ndk113basic_istreamIwNS_11char_traitsIwEEE6ignoreElj
00000000006f629c W _ZNSt6__ndk113basic_istreamIwNS_11char_traitsIwEEE6sentryC1ERS3_b
00000000006f629c W _ZNSt6__ndk113basic_istreamIwNS_11char_traitsIwEEE6sentryC2ERS3_b
00000000006f83c0 W _ZNSt6__ndk113basic_istreamIwNS_11char_traitsIwEEE7getlineEPwl
00000000006f8490 W _ZNSt6__ndk113basic_istreamIwNS_11char_traitsIwEEE7getlineEPwlw
00000000006f8d34 W _ZNSt6__ndk113basic_istreamIwNS_11char_traitsIwEEE7putbackEw
00000000006f8b84 W _ZNSt6__ndk113basic_istreamIwNS_11char_traitsIwEEE8readsomeEPwl
00000000006f6110 W _ZNSt6__ndk113basic_istreamIwNS_11char_traitsIwEEEC1EPNS_15basic_streambufIwS2_EE
00000000006f607c W _ZNSt6__ndk113basic_istreamIwNS_11char_traitsIwEEEC2EPNS_15basic_streambufIwS2_EE
00000000006f61c8 W _ZNSt6__ndk113basic_istreamIwNS_11char_traitsIwEEED0Ev
00000000006f61a4 W _ZNSt6__ndk113basic_istreamIwNS_11char_traitsIwEEED1Ev
00000000006f619c W _ZNSt6__ndk113basic_istreamIwNS_11char_traitsIwEEED2Ev
00000000006f6668 W _ZNSt6__ndk113basic_istreamIwNS_11char_traitsIwEEErsEPFRNS_8ios_baseES5_E
00000000006f6630 W _ZNSt6__ndk113basic_istreamIwNS_11char_traitsIwEEErsEPFRNS_9basic_iosIwS2_EES6_E
00000000006f6624 W _ZNSt6__ndk113basic_istreamIwNS_11char_traitsIwEEErsEPFRS3_S4_E
00000000006f66a0 W _ZNSt6__ndk113basic_istreamIwNS_11char_traitsIwEEErsEPNS_15basic_streambufIwS2_EE
00000000006f7b24 W _ZNSt6__ndk113basic_istreamIwNS_11char_traitsIwEEErsERPv
00000000006f68a0 W _ZNSt6__ndk113basic_istreamIwNS_11char_traitsIwEEErsERb
00000000006f7824 W _ZNSt6__ndk113basic_istreamIwNS_11char_traitsIwEEErsERd
00000000006f79a4 W _ZNSt6__ndk113basic_istreamIwNS_11char_traitsIwEEErsERe
00000000006f76a4 W _ZNSt6__ndk113basic_istreamIwNS_11char_traitsIwEEErsERf
00000000006f6d60 W _ZNSt6__ndk113basic_istreamIwNS_11char_traitsIwEEErsERi
00000000006f6f24 W _ZNSt6__ndk113basic_istreamIwNS_11char_traitsIwEEErsERj
00000000006f70a4 W _ZNSt6__ndk113basic_istreamIwNS_11char_traitsIwEEErsERl
00000000006f7224 W _ZNSt6__ndk113basic_istreamIwNS_11char_traitsIwEEErsERm
00000000006f6a20 W _ZNSt6__ndk113basic_istreamIwNS_11char_traitsIwEEErsERs
00000000006f6be0 W _ZNSt6__ndk113basic_istreamIwNS_11char_traitsIwEEErsERt
00000000006f73a4 W _ZNSt6__ndk113basic_istreamIwNS_11char_traitsIwEEErsERx
00000000006f7524 W _ZNSt6__ndk113basic_istreamIwNS_11char_traitsIwEEErsERy
00000000006fb61c W _ZNSt6__ndk113basic_ostreamIcNS_11char_traitsIcEEE3putEc
00000000006f9798 W _ZNSt6__ndk113basic_ostreamIcNS_11char_traitsIcEEE4swapERS3_
00000000006f2f50 W _ZNSt6__ndk113basic_ostreamIcNS_11char_traitsIcEEE5flushEv
00000000006fb938 W _ZNSt6__ndk113basic_ostreamIcNS_11char_traitsIcEEE5seekpENS_4fposI9mbstate_tEE
00000000006fba68 W _ZNSt6__ndk113basic_ostreamIcNS_11char_traitsIcEEE5seekpExNS_8ios_base7seekdirE
00000000006fb8dc W _ZNSt6__ndk113basic_ostreamIcNS_11char_traitsIcEEE5tellpEv
00000000006fb780 W _ZNSt6__ndk113basic_ostreamIcNS_11char_traitsIcEEE5writeEPKcl
00000000006f97fc W _ZNSt6__ndk113basic_ostreamIcNS_11char_traitsIcEEE6sentryC1ERS3_
00000000006f97fc W _ZNSt6__ndk113basic_ostreamIcNS_11char_traitsIcEEE6sentryC2ERS3_
00000000006f9850 W _ZNSt6__ndk113basic_ostreamIcNS_11char_traitsIcEEE6sentryD1Ev
00000000006f9850 W _ZNSt6__ndk113basic_ostreamIcNS_11char_traitsIcEEE6sentryD2Ev
00000000006f9684 W _ZNSt6__ndk113basic_ostreamIcNS_11char_traitsIcEEEC1EPNS_15basic_streambufIcS2_EE
00000000006f95f4 W _ZNSt6__ndk113basic_ostreamIcNS_11char_traitsIcEEEC2EPNS_15basic_streambufIcS2_EE
00000000006f9730 W _ZNSt6__ndk113basic_ostreamIcNS_11char_traitsIcEEED0Ev
00000000006f970c W _ZNSt6__ndk113basic_ostreamIcNS_11char_traitsIcEEED1Ev
00000000006f9704 W _ZNSt6__ndk113basic_ostreamIcNS_11char_traitsIcEEED2Ev
00000000006f9950 W _ZNSt6__ndk113basic_ostreamIcNS_11char_traitsIcEEElsEPFRNS_8ios_baseES5_E
00000000006f9918 W _ZNSt6__ndk113basic_ostreamIcNS_11char_traitsIcEEElsEPFRNS_9basic_iosIcS2_EES6_E
00000000006f990c W _ZNSt6__ndk113basic_ostreamIcNS_11char_traitsIcEEElsEPFRS3_S4_E
00000000006fb190 W _ZNSt6__ndk113basic_ostreamIcNS_11char_traitsIcEEElsEPKv
00000000006fb388 W _ZNSt6__ndk113basic_ostreamIcNS_11char_traitsIcEEElsEPNS_15basic_streambufIcS2_EE
00000000006f9988 W _ZNSt6__ndk113basic_ostreamIcNS_11char_traitsIcEEElsEb
00000000006fada8 W _ZNSt6__ndk113basic_ostreamIcNS_11char_traitsIcEEElsEd
00000000006fafa0 W _ZNSt6__ndk113basic_ostreamIcNS_11char_traitsIcEEElsEe
00000000006fabb0 W _ZNSt6__ndk113basic_ostreamIcNS_11char_traitsIcEEElsEf
00000000006f9fc0 W _ZNSt6__ndk113basic_ostreamIcNS_11char_traitsIcEEElsEi
00000000006fa1d8 W _ZNSt6__ndk113basic_ostreamIcNS_11char_traitsIcEEElsEj
00000000006fa3d0 W _ZNSt6__ndk113basic_ostreamIcNS_11char_traitsIcEEElsEl
00000000006fa5c8 W _ZNSt6__ndk113basic_ostreamIcNS_11char_traitsIcEEElsEm
00000000006f9bb0 W _ZNSt6__ndk113basic_ostreamIcNS_11char_traitsIcEEElsEs
00000000006f9dc8 W _ZNSt6__ndk113basic_ostreamIcNS_11char_traitsIcEEElsEt
00000000006fa7c0 W _ZNSt6__ndk113basic_ostreamIcNS_11char_traitsIcEEElsEx
00000000006fa9b8 W _ZNSt6__ndk113basic_ostreamIcNS_11char_traitsIcEEElsEy
00000000006fdb6c W _ZNSt6__ndk113basic_ostreamIwNS_11char_traitsIwEEE3putEw
00000000006fbd3c W _ZNSt6__ndk113basic_ostreamIwNS_11char_traitsIwEEE4swapERS3_
00000000006f64d8 W _ZNSt6__ndk113basic_ostreamIwNS_11char_traitsIwEEE5flushEv
00000000006fde90 W _ZNSt6__ndk113basic_ostreamIwNS_11char_traitsIwEEE5seekpENS_4fposI9mbstate_tEE
00000000006fdfc0 W _ZNSt6__ndk113basic_ostreamIwNS_11char_traitsIwEEE5seekpExNS_8ios_base7seekdirE
00000000006fde34 W _ZNSt6__ndk113basic_ostreamIwNS_11char_traitsIwEEE5tellpEv
00000000006fdcd8 W _ZNSt6__ndk113basic_ostreamIwNS_11char_traitsIwEEE5writeEPKwl
00000000006fbda0 W _ZNSt6__ndk113basic_ostreamIwNS_11char_traitsIwEEE6sentryC1ERS3_
00000000006fbda0 W _ZNSt6__ndk113basic_ostreamIwNS_11char_traitsIwEEE6sentryC2ERS3_
00000000006fbdf4 W _ZNSt6__ndk113basic_ostreamIwNS_11char_traitsIwEEE6sentryD1Ev
00000000006fbdf4 W _ZNSt6__ndk113basic_ostreamIwNS_11char_traitsIwEEE6sentryD2Ev
00000000006fbc28 W _ZNSt6__ndk113basic_ostreamIwNS_11char_traitsIwEEEC1EPNS_15basic_streambufIwS2_EE
00000000006fbb98 W _ZNSt6__ndk113basic_ostreamIwNS_11char_traitsIwEEEC2EPNS_15basic_streambufIwS2_EE
00000000006fbcd4 W _ZNSt6__ndk113basic_ostreamIwNS_11char_traitsIwEEED0Ev
00000000006fbcb0 W _ZNSt6__ndk113basic_ostreamIwNS_11char_traitsIwEEED1Ev
00000000006fbca8 W _ZNSt6__ndk113basic_ostreamIwNS_11char_traitsIwEEED2Ev
00000000006fbef4 W _ZNSt6__ndk113basic_ostreamIwNS_11char_traitsIwEEElsEPFRNS_8ios_baseES5_E
00000000006fbebc W _ZNSt6__ndk113basic_ostreamIwNS_11char_traitsIwEEElsEPFRNS_9basic_iosIwS2_EES6_E
00000000006fbeb0 W _ZNSt6__ndk113basic_ostreamIwNS_11char_traitsIwEEElsEPFRS3_S4_E
00000000006fd704 W _ZNSt6__ndk113basic_ostreamIwNS_11char_traitsIwEEElsEPKv
00000000006fd8fc W _ZNSt6__ndk113basic_ostreamIwNS_11char_traitsIwEEElsEPNS_15basic_streambufIwS2_EE
00000000006fbf2c W _ZNSt6__ndk113basic_ostreamIwNS_11char_traitsIwEEElsEb
00000000006fd31c W _ZNSt6__ndk113basic_ostreamIwNS_11char_traitsIwEEElsEd
00000000006fd514 W _ZNSt6__ndk113basic_ostreamIwNS_11char_traitsIwEEElsEe
00000000006fd124 W _ZNSt6__ndk113basic_ostreamIwNS_11char_traitsIwEEElsEf
00000000006fc534 W _ZNSt6__ndk113basic_ostreamIwNS_11char_traitsIwEEElsEi
00000000006fc74c W _ZNSt6__ndk113basic_ostreamIwNS_11char_traitsIwEEElsEj
00000000006fc944 W _ZNSt6__ndk113basic_ostreamIwNS_11char_traitsIwEEElsEl
00000000006fcb3c W _ZNSt6__ndk113basic_ostreamIwNS_11char_traitsIwEEElsEm
00000000006fc124 W _ZNSt6__ndk113basic_ostreamIwNS_11char_traitsIwEEElsEs
00000000006fc33c W _ZNSt6__ndk113basic_ostreamIwNS_11char_traitsIwEEElsEt
00000000006fcd34 W _ZNSt6__ndk113basic_ostreamIwNS_11char_traitsIwEEElsEx
00000000006fcf2c W _ZNSt6__ndk113basic_ostreamIwNS_11char_traitsIwEEElsEy
0000000000442d44 W _ZNSt6__ndk114__split_bufferINS_12basic_stringIcNS_11char_traitsIcEENS_9allocatorIcEEEERNS4_IS6_EEED2Ev
0000000000392408 W _ZNSt6__ndk114basic_ifstreamIcNS_11char_traitsIcEEED0Ev
0000000000391fa4 W _ZNSt6__ndk114basic_ifstreamIcNS_11char_traitsIcEEED1Ev
00000000006fe338 W _ZNSt6__ndk114basic_iostreamIcNS_11char_traitsIcEEE4swapERS3_
00000000006fe1c8 W _ZNSt6__ndk114basic_iostreamIcNS_11char_traitsIcEEEC1EPNS_15basic_streambufIcS2_EE
00000000006fe0f0 W _ZNSt6__ndk114basic_iostreamIcNS_11char_traitsIcEEEC2EPNS_15basic_streambufIcS2_EE
00000000006fe2a0 W _ZNSt6__ndk114basic_iostreamIcNS_11char_traitsIcEEED0Ev
00000000006fe270 W _ZNSt6__ndk114basic_iostreamIcNS_11char_traitsIcEEED1Ev
00000000006fe268 W _ZNSt6__ndk114basic_iostreamIcNS_11char_traitsIcEEED2Ev
000000000071e70c T _ZNSt6__ndk114collate_bynameIcEC1ERKNS_12basic_stringIcNS_11char_traitsIcEENS_9allocatorIcEEEEm
000000000071e70c T _ZNSt6__ndk114collate_bynameIcEC2ERKNS_12basic_stringIcNS_11char_traitsIcEENS_9allocatorIcEEEEm
000000000071ed8c T _ZNSt6__ndk114collate_bynameIwEC1ERKNS_12basic_stringIcNS_11char_traitsIcEENS_9allocatorIcEEEEm
000000000071ed8c T _ZNSt6__ndk114collate_bynameIwEC2ERKNS_12basic_stringIcNS_11char_traitsIcEENS_9allocatorIcEEEEm
00000000006f1d20 W _ZNSt6__ndk115basic_streambufIcNS_11char_traitsIcEEE10pubseekoffExNS_8ios_base7seekdirEj
00000000006f1d30 W _ZNSt6__ndk115basic_streambufIcNS_11char_traitsIcEEE10pubseekposENS_4fposI9mbstate_tEEj
00000000006f211c W _ZNSt6__ndk115basic_streambufIcNS_11char_traitsIcEEE4setgEPcS4_S4_
00000000006f2140 W _ZNSt6__ndk115basic_streambufIcNS_11char_traitsIcEEE4setpEPcS4_
00000000006f2014 W _ZNSt6__ndk115basic_streambufIcNS_11char_traitsIcEEE4swapERS3_
00000000006f2180 W _ZNSt6__ndk115basic_streambufIcNS_11char_traitsIcEEE4syncEv
00000000006f2108 W _ZNSt6__ndk115basic_streambufIcNS_11char_traitsIcEEE5gbumpEi
00000000006f2150 W _ZNSt6__ndk115basic_streambufIcNS_11char_traitsIcEEE5imbueERKNS_6localeE
00000000006f212c W _ZNSt6__ndk115basic_streambufIcNS_11char_traitsIcEEE5pbumpEi
00000000006f1e28 W _ZNSt6__ndk115basic_streambufIcNS_11char_traitsIcEEE5sgetcEv
00000000006f1e4c W _ZNSt6__ndk115basic_streambufIcNS_11char_traitsIcEEE5sgetnEPcl
00000000006f1ec4 W _ZNSt6__ndk115basic_streambufIcNS_11char_traitsIcEEE5sputcEc
00000000006f1f00 W _ZNSt6__ndk115basic_streambufIcNS_11char_traitsIcEEE5sputnEPKcl
00000000006f2274 W _ZNSt6__ndk115basic_streambufIcNS_11char_traitsIcEEE5uflowEv
00000000006f1dfc W _ZNSt6__ndk115basic_streambufIcNS_11char_traitsIcEEE6sbumpcEv
00000000006f2158 W _ZNSt6__ndk115basic_streambufIcNS_11char_traitsIcEEE6setbufEPcl
00000000006f1d74 W _ZNSt6__ndk115basic_streambufIcNS_11char_traitsIcEEE6snextcEv
00000000006f2198 W _ZNSt6__ndk115basic_streambufIcNS_11char_traitsIcEEE6xsgetnEPcl
00000000006f22c8 W _ZNSt6__ndk115basic_streambufIcNS_11char_traitsIcEEE6xsputnEPKcl
00000000006f1d40 W _ZNSt6__ndk115basic_streambufIcNS_11char_traitsIcEEE7pubsyncEv
00000000006f2160 W _ZNSt6__ndk115basic_streambufIcNS_11char_traitsIcEEE7seekoffExNS_8ios_base7seekdirEj
00000000006f2170 W _ZNSt6__ndk115basic_streambufIcNS_11char_traitsIcEEE7seekposENS_4fposI9mbstate_tEEj
00000000006f1e94 W _ZNSt6__ndk115basic_streambufIcNS_11char_traitsIcEEE7sungetcEv
00000000006f1d50 W _ZNSt6__ndk115basic_streambufIcNS_11char_traitsIcEEE8in_availEv
00000000006f2398 W _ZNSt6__ndk115basic_streambufIcNS_11char_traitsIcEEE8overflowEi
00000000006f1cac W _ZNSt6__ndk115basic_streambufIcNS_11char_traitsIcEEE8pubimbueERKNS_6localeE
00000000006f22bc W _ZNSt6__ndk115basic_streambufIcNS_11char_traitsIcEEE9pbackfailEi
00000000006f1d10 W _ZNSt6__ndk115basic_streambufIcNS_11char_traitsIcEEE9pubsetbufEPcl
00000000006f218c W _ZNSt6__ndk115basic_streambufIcNS_11char_traitsIcEEE9showmanycEv
00000000006f1e5c W _ZNSt6__ndk115basic_streambufIcNS_11char_traitsIcEEE9sputbackcEc
00000000006f2268 W _ZNSt6__ndk115basic_streambufIcNS_11char_traitsIcEEE9underflowEv
00000000006f1f58 W _ZNSt6__ndk115basic_streambufIcNS_11char_traitsIcEEEC1ERKS3_
00000000006f1f10 W _ZNSt6__ndk115basic_streambufIcNS_11char_traitsIcEEEC1Ev
00000000006f1f58 W _ZNSt6__ndk115basic_streambufIcNS_11char_traitsIcEEEC2ERKS3_
00000000006f1f10 W _ZNSt6__ndk115basic_streambufIcNS_11char_traitsIcEEEC2Ev
00000000006f1c70 W _ZNSt6__ndk115basic_streambufIcNS_11char_traitsIcEEED0Ev
00000000006f1c58 W _ZNSt6__ndk115basic_streambufIcNS_11char_traitsIcEEED1Ev
00000000006f1c58 W _ZNSt6__ndk115basic_streambufIcNS_11char_traitsIcEEED2Ev
00000000006f1fbc W _ZNSt6__ndk115basic_streambufIcNS_11char_traitsIcEEEaSERKS3_
00000000006f246c W _ZNSt6__ndk115basic_streambufIwNS_11char_traitsIwEEE10pubseekoffExNS_8ios_base7seekdirEj
00000000006f247c W _ZNSt6__ndk115basic_streambufIwNS_11char_traitsIwEEE10pubseekposENS_4fposI9mbstate_tEEj
00000000006f2870 W _ZNSt6__ndk115basic_streambufIwNS_11char_traitsIwEEE4setgEPwS4_S4_
00000000006f2894 W _ZNSt6__ndk115basic_streambufIwNS_11char_traitsIwEEE4setpEPwS4_
00000000006f2768 W _ZNSt6__ndk115basic_streambufIwNS_11char_traitsIwEEE4swapERS3_
00000000006f28d4 W _ZNSt6__ndk115basic_streambufIwNS_11char_traitsIwEEE4syncEv
00000000006f285c W _ZNSt6__ndk115basic_streambufIwNS_11char_traitsIwEEE5gbumpEi
00000000006f28a4 W _ZNSt6__ndk115basic_streambufIwNS_11char_traitsIwEEE5imbueERKNS_6localeE
00000000006f2880 W _ZNSt6__ndk115basic_streambufIwNS_11char_traitsIwEEE5pbumpEi
00000000006f257c W _ZNSt6__ndk115basic_streambufIwNS_11char_traitsIwEEE5sgetcEv
00000000006f25a0 W _ZNSt6__ndk115basic_streambufIwNS_11char_traitsIwEEE5sgetnEPwl
00000000006f2620 W _ZNSt6__ndk115basic_streambufIwNS_11char_traitsIwEEE5sputcEw
00000000006f2654 W _ZNSt6__ndk115basic_streambufIwNS_11char_traitsIwEEE5sputnEPKwl
00000000006f29d4 W _ZNSt6__ndk115basic_streambufIwNS_11char_traitsIwEEE5uflowEv
00000000006f254c W _ZNSt6__ndk115basic_streambufIwNS_11char_traitsIwEEE6sbumpcEv
00000000006f28ac W _ZNSt6__ndk115basic_streambufIwNS_11char_traitsIwEEE6setbufEPwl
00000000006f24c4 W _ZNSt6__ndk115basic_streambufIwNS_11char_traitsIwEEE6snextcEv
00000000006f28ec W _ZNSt6__ndk115basic_streambufIwNS_11char_traitsIwEEE6xsgetnEPwl
00000000006f2a24 W _ZNSt6__ndk115basic_streambufIwNS_11char_traitsIwEEE6xsputnEPKwl
00000000006f248c W _ZNSt6__ndk115basic_streambufIwNS_11char_traitsIwEEE7pubsyncEv
00000000006f28b4 W _ZNSt6__ndk115basic_streambufIwNS_11char_traitsIwEEE7seekoffExNS_8ios_base7seekdirEj
00000000006f28c4 W _ZNSt6__ndk115basic_streambufIwNS_11char_traitsIwEEE7seekposENS_4fposI9mbstate_tEEj
00000000006f25ec W _ZNSt6__ndk115basic_streambufIwNS_11char_traitsIwEEE7sungetcEv
00000000006f249c W _ZNSt6__ndk115basic_streambufIwNS_11char_traitsIwEEE8in_availEv
00000000006f2b00 W _ZNSt6__ndk115basic_streambufIwNS_11char_traitsIwEEE8overflowEj
00000000006f23f8 W _ZNSt6__ndk115basic_streambufIwNS_11char_traitsIwEEE8pubimbueERKNS_6localeE
00000000006f2a18 W _ZNSt6__ndk115basic_streambufIwNS_11char_traitsIwEEE9pbackfailEj
00000000006f245c W _ZNSt6__ndk115basic_streambufIwNS_11char_traitsIwEEE9pubsetbufEPwl
00000000006f28e0 W _ZNSt6__ndk115basic_streambufIwNS_11char_traitsIwEEE9showmanycEv
00000000006f25b0 W _ZNSt6__ndk115basic_streambufIwNS_11char_traitsIwEEE9sputbackcEw
00000000006f29c8 W _ZNSt6__ndk115basic_streambufIwNS_11char_traitsIwEEE9underflowEv
00000000006f26ac W _ZNSt6__ndk115basic_streambufIwNS_11char_traitsIwEEEC1ERKS3_
00000000006f2664 W _ZNSt6__ndk115basic_streambufIwNS_11char_traitsIwEEEC1Ev
00000000006f26ac W _ZNSt6__ndk115basic_streambufIwNS_11char_traitsIwEEEC2ERKS3_
00000000006f2664 W _ZNSt6__ndk115basic_streambufIwNS_11char_traitsIwEEEC2Ev
00000000006f23bc W _ZNSt6__ndk115basic_streambufIwNS_11char_traitsIwEEED0Ev
00000000006f23a4 W _ZNSt6__ndk115basic_streambufIwNS_11char_traitsIwEEED1Ev
00000000006f23a4 W _ZNSt6__ndk115basic_streambufIwNS_11char_traitsIwEEED2Ev
00000000006f2710 W _ZNSt6__ndk115basic_streambufIwNS_11char_traitsIwEEEaSERKS3_
00000000004316ac W _ZNSt6__ndk115basic_stringbufIcNS_11char_traitsIcEENS_9allocatorIcEEE3strERKNS_12basic_stringIcS2_S4_EE
0000000000430478 W _ZNSt6__ndk115basic_stringbufIcNS_11char_traitsIcEENS_9allocatorIcEEE7seekoffExNS_8ios_base7seekdirEj
000000000043064c W _ZNSt6__ndk115basic_stringbufIcNS_11char_traitsIcEENS_9allocatorIcEEE8overflowEi
00000000004305dc W _ZNSt6__ndk115basic_stringbufIcNS_11char_traitsIcEENS_9allocatorIcEEE9pbackfailEi
000000000043058c W _ZNSt6__ndk115basic_stringbufIcNS_11char_traitsIcEENS_9allocatorIcEEE9underflowEv
0000000000430430 W _ZNSt6__ndk115basic_stringbufIcNS_11char_traitsIcEENS_9allocatorIcEEED0Ev
00000000004303f0 W _ZNSt6__ndk115basic_stringbufIcNS_11char_traitsIcEENS_9allocatorIcEEED2Ev
00000000007252ac T _ZNSt6__ndk115numpunct_bynameIcEC1ERKNS_12basic_stringIcNS_11char_traitsIcEENS_9allocatorIcEEEEm
00000000007252ac T _ZNSt6__ndk115numpunct_bynameIcEC2ERKNS_12basic_stringIcNS_11char_traitsIcEENS_9allocatorIcEEEEm
0000000000725678 T _ZNSt6__ndk115numpunct_bynameIwEC1ERKNS_12basic_stringIcNS_11char_traitsIcEENS_9allocatorIcEEEEm
0000000000725678 T _ZNSt6__ndk115numpunct_bynameIwEC2ERKNS_12basic_stringIcNS_11char_traitsIcEENS_9allocatorIcEEEEm
000000000071238c T _ZNSt6__ndk116__check_groupingERKNS_12basic_stringIcNS_11char_traitsIcEENS_9allocatorIcEEEEPjS8_Rj
00000000007290ec T _ZNSt6__ndk118__time_get_storageIcEC1ERKNS_12basic_stringIcNS_11char_traitsIcEENS_9allocatorIcEEEE
00000000007290ec T _ZNSt6__ndk118__time_get_storageIcEC2ERKNS_12basic_stringIcNS_11char_traitsIcEENS_9allocatorIcEEEE
0000000000729798 T _ZNSt6__ndk118__time_get_storageIwEC1ERKNS_12basic_stringIcNS_11char_traitsIcEENS_9allocatorIcEEEE
0000000000729798 T _ZNSt6__ndk118__time_get_storageIwEC2ERKNS_12basic_stringIcNS_11char_traitsIcEENS_9allocatorIcEEEE
0000000000516a7c W _ZNSt6__ndk118basic_stringstreamIcNS_11char_traitsIcEENS_9allocatorIcEEED0Ev
0000000000516148 W _ZNSt6__ndk118basic_stringstreamIcNS_11char_traitsIcEENS_9allocatorIcEEED1Ev
00000000004302dc W _ZNSt6__ndk119basic_istringstreamIcNS_11char_traitsIcEENS_9allocatorIcEEED0Ev
0000000000429898 W _ZNSt6__ndk119basic_istringstreamIcNS_11char_traitsIcEENS_9allocatorIcEEED1Ev
0000000000430ad8 W _ZNSt6__ndk119basic_ostringstreamIcNS_11char_traitsIcEENS_9allocatorIcEEED0Ev
000000000042fed8 W _ZNSt6__ndk119basic_ostringstreamIcNS_11char_traitsIcEENS_9allocatorIcEEED1Ev
000000000043ba70 W _ZNSt6__ndk124__put_character_sequenceIcNS_11char_traitsIcEEEERNS_13basic_ostreamIT_T0_EES7_PKS4_m
000000000043bd98 W _ZNSt6__ndk125__lexicographical_compareIRNS_6__lessINS_4pairIKN4Json5Value8CZStringES4_EES7_EENS_20__map_const_iteratorINS_21__tree_const_iteratorINS_12__value_typeIS5_S4_EEPNS_11__tree_nodeISD_PvEElEEEESJ_EEbT0_SK_T1_SL_T_
00000000003dc888 W _ZNSt6__ndk13mapINS_12basic_stringIcNS_11char_traitsIcEENS_9allocatorIcEEEEiNS_4lessIS6_EENS4_INS_4pairIKS6_iEEEEE6insertINS9_IS6_iEEvEENS9_INS_14__map_iteratorINS_15__tree_iteratorINS_12__value_typeIS6_iEEPNS_11__tree_nodeISJ_PvEElEEEEbEEOT_
00000000003c5228 W _ZNSt6__ndk13mapIiPN12__HttpClient13RequestResultENS_4lessIiEENS_9allocatorINS_4pairIKiS3_EEEEE6insertINS_20__map_const_iteratorINS_21__tree_const_iteratorINS_12__value_typeIiS3_EEPNS_11__tree_nodeISG_PvEElEEEEEEvT_SN_
000000000038e30c W _ZNSt6__ndk14pairINS_12basic_stringIcNS_11char_traitsIcEENS_9allocatorIcEEEE7SubNodeEC2IRKS6_RS7_Lb0EEEOT_OT0_
000000000038e948 W _ZNSt6__ndk14pairINS_12basic_stringIcNS_11char_traitsIcEENS_9allocatorIcEEEE7SubNodeEC2IRS6_RS7_Lb0EEEOT_OT0_
000000000038e3ec W _ZNSt6__ndk14pairINS_12basic_stringIcNS_11char_traitsIcEENS_9allocatorIcEEEE7SubNodeED2Ev
00000000003913d0 W _ZNSt6__ndk14pairINS_12basic_stringIcNS_11char_traitsIcEENS_9allocatorIcEEEE8WordNodeED2Ev
000000000038e0b4 W _ZNSt6__ndk14pairINS_12basic_stringIcNS_11char_traitsIcEENS_9allocatorIcEEEES6_EC2IRS6_RA1_KcLb0EEEOT_OT0_
000000000038e170 W _ZNSt6__ndk14pairINS_12basic_stringIcNS_11char_traitsIcEENS_9allocatorIcEEEES6_ED2Ev
00000000003dc974 W _ZNSt6__ndk14pairINS_12basic_stringIcNS_11char_traitsIcEENS_9allocatorIcEEEEiEC2IRA64_cRiLb0EEEOT_OT0_
00000000007354e4 T _ZNSt6__ndk14stodERKNS_12basic_stringIcNS_11char_traitsIcEENS_9allocatorIcEEEEPm
00000000007356d0 T _ZNSt6__ndk14stodERKNS_12basic_stringIwNS_11char_traitsIwEENS_9allocatorIwEEEEPm
0000000000735104 T _ZNSt6__ndk14stofERKNS_12basic_stringIcNS_11char_traitsIcEENS_9allocatorIcEEEEPm
00000000007352f0 T _ZNSt6__ndk14stofERKNS_12basic_stringIwNS_11char_traitsIwEENS_9allocatorIwEEEEPm
0000000000734174 T _ZNSt6__ndk14stoiERKNS_12basic_stringIcNS_11char_traitsIcEENS_9allocatorIcEEEEPmi
00000000007342b4 T _ZNSt6__ndk14stoiERKNS_12basic_stringIwNS_11char_traitsIwEENS_9allocatorIwEEEEPmi
00000000007343f4 T _ZNSt6__ndk14stolERKNS_12basic_stringIcNS_11char_traitsIcEENS_9allocatorIcEEEEPmi
000000000073449c T _ZNSt6__ndk14stolERKNS_12basic_stringIwNS_11char_traitsIwEENS_9allocatorIwEEEEPmi
00000000007358c4 T _ZNSt6__ndk15stoldERKNS_12basic_stringIcNS_11char_traitsIcEENS_9allocatorIcEEEEPm
0000000000735aac T _ZNSt6__ndk15stoldERKNS_12basic_stringIwNS_11char_traitsIwEENS_9allocatorIwEEEEPm
000000000073492c T _ZNSt6__ndk15stollERKNS_12basic_stringIcNS_11char_traitsIcEENS_9allocatorIcEEEEPmi
0000000000734b1c T _ZNSt6__ndk15stollERKNS_12basic_stringIwNS_11char_traitsIwEENS_9allocatorIwEEEEPmi
0000000000734544 T _ZNSt6__ndk15stoulERKNS_12basic_stringIcNS_11char_traitsIcEENS_9allocatorIcEEEEPmi
0000000000734734 T _ZNSt6__ndk15stoulERKNS_12basic_stringIwNS_11char_traitsIwEENS_9allocatorIwEEEEPmi
000000000043c018 W _ZNSt6__ndk16__treeINS_12__value_typeIN4Json5Value8CZStringES3_EENS_19__map_value_compareIS4_S5_NS_4lessIS4_EELb1EEENS_9allocatorIS5_EEE12__find_equalIS4_EERPNS_16__tree_node_baseIPvEENS_21__tree_const_iteratorIS5_PNS_11__tree_nodeIS5_SF_EElEERPNS_15__tree_end_nodeISH_EESI_RKT_
000000000043c264 W _ZNSt6__ndk16__treeINS_12__value_typeIN4Json5Value8CZStringES3_EENS_19__map_value_compareIS4_S5_NS_4lessIS4_EELb1EEENS_9allocatorIS5_EEE16__construct_nodeIJRKNS_4pairIKS4_S3_EEEEENS_10unique_ptrINS_11__tree_nodeIS5_PvEENS_22__tree_node_destructorINSA_ISM_EEEEEEDpOT_
000000000043c38c W _ZNSt6__ndk16__treeINS_12__value_typeIN4Json5Value8CZStringES3_EENS_19__map_value_compareIS4_S5_NS_4lessIS4_EELb1EEENS_9allocatorIS5_EEE25__emplace_unique_key_argsIS4_JRKNS_21piecewise_construct_tENS_5tupleIJRKS4_EEENSH_IJEEEEEENS_4pairINS_15__tree_iteratorIS5_PNS_11__tree_nodeIS5_PvEElEEbEERKT_DpOT0_
000000000043bf60 W _ZNSt6__ndk16__treeINS_12__value_typeIN4Json5Value8CZStringES3_EENS_19__map_value_compareIS4_S5_NS_4lessIS4_EELb1EEENS_9allocatorIS5_EEE5eraseENS_21__tree_const_iteratorIS5_PNS_11__tree_nodeIS5_PvEElEE
000000000043befc W _ZNSt6__ndk16__treeINS_12__value_typeIN4Json5Value8CZStringES3_EENS_19__map_value_compareIS4_S5_NS_4lessIS4_EELb1EEENS_9allocatorIS5_EEE7destroyEPNS_11__tree_nodeIS5_PvEE
000000000038f484 W _ZNSt6__ndk16__treeINS_12__value_typeINS_12basic_stringIcNS_11char_traitsIcEENS_9allocatorIcEEEE7SubNodeEENS_19__map_value_compareIS7_S9_NS_4lessIS7_EELb1EEENS5_IS9_EEE12__find_equalIS7_EERPNS_16__tree_node_baseIPvEERPNS_15__tree_end_nodeISK_EERKT_
000000000038f374 W _ZNSt6__ndk16__treeINS_12__value_typeINS_12basic_stringIcNS_11char_traitsIcEENS_9allocatorIcEEEE7SubNodeEENS_19__map_value_compareIS7_S9_NS_4lessIS7_EELb1EEENS5_IS9_EEE25__emplace_unique_key_argsIS7_JNS_4pairIS7_S8_EEEEENSH_INS_15__tree_iteratorIS9_PNS_11__tree_nodeIS9_PvEElEEbEERKT_DpOT0_
000000000038f59c W _ZNSt6__ndk16__treeINS_12__value_typeINS_12basic_stringIcNS_11char_traitsIcEENS_9allocatorIcEEEE7SubNodeEENS_19__map_value_compareIS7_S9_NS_4lessIS7_EELb1EEENS5_IS9_EEE4findIS7_EENS_15__tree_iteratorIS9_PNS_11__tree_nodeIS9_PvEElEERKT_
00000000003907fc W _ZNSt6__ndk16__treeINS_12__value_typeINS_12basic_stringIcNS_11char_traitsIcEENS_9allocatorIcEEEE7SubNodeEENS_19__map_value_compareIS7_S9_NS_4lessIS7_EELb1EEENS5_IS9_EEE7destroyEPNS_11__tree_nodeIS9_PvEE
00000000003932d0 W _ZNSt6__ndk16__treeINS_12__value_typeINS_12basic_stringIcNS_11char_traitsIcEENS_9allocatorIcEEEE8WordNodeEENS_19__map_value_compareIS7_S9_NS_4lessIS7_EELb1EEENS5_IS9_EEE12__find_equalIS7_EERPNS_16__tree_node_baseIPvEERPNS_15__tree_end_nodeISK_EERKT_
0000000000393190 W _ZNSt6__ndk16__treeINS_12__value_typeINS_12basic_stringIcNS_11char_traitsIcEENS_9allocatorIcEEEE8WordNodeEENS_19__map_value_compareIS7_S9_NS_4lessIS7_EELb1EEENS5_IS9_EEE25__emplace_unique_key_argsIS7_JNS_4pairIS7_S8_EEEEENSH_INS_15__tree_iteratorIS9_PNS_11__tree_nodeIS9_PvEElEEbEERKT_DpOT0_
000000000039307c W _ZNSt6__ndk16__treeINS_12__value_typeINS_12basic_stringIcNS_11char_traitsIcEENS_9allocatorIcEEEE8WordNodeEENS_19__map_value_compareIS7_S9_NS_4lessIS7_EELb1EEENS5_IS9_EEE4findIS7_EENS_15__tree_iteratorIS9_PNS_11__tree_nodeIS9_PvEElEERKT_
0000000000393010 W _ZNSt6__ndk16__treeINS_12__value_typeINS_12basic_stringIcNS_11char_traitsIcEENS_9allocatorIcEEEE8WordNodeEENS_19__map_value_compareIS7_S9_NS_4lessIS7_EELb1EEENS5_IS9_EEE7destroyEPNS_11__tree_nodeIS9_PvEE
000000000039d754 W _ZNSt6__ndk16__treeINS_12__value_typeINS_12basic_stringIcNS_11char_traitsIcEENS_9allocatorIcEEEEN13ConfigManager7stValueEEENS_19__map_value_compareIS7_SA_NS_4lessIS7_EELb1EEENS5_ISA_EEE12__find_equalIS7_EERPNS_16__tree_node_baseIPvEERPNS_15__tree_end_nodeISL_EERKT_
000000000039d65c W _ZNSt6__ndk16__treeINS_12__value_typeINS_12basic_stringIcNS_11char_traitsIcEENS_9allocatorIcEEEEN13ConfigManager7stValueEEENS_19__map_value_compareIS7_SA_NS_4lessIS7_EELb1EEENS5_ISA_EEE25__emplace_unique_key_argsIS7_JRKNS_21piecewise_construct_tENS_5tupleIJRKS7_EEENSL_IJEEEEEENS_4pairINS_15__tree_iteratorISA_PNS_11__tree_nodeISA_PvEElEEbEERKT_DpOT0_
000000000039d548 W _ZNSt6__ndk16__treeINS_12__value_typeINS_12basic_stringIcNS_11char_traitsIcEENS_9allocatorIcEEEEN13ConfigManager7stValueEEENS_19__map_value_compareIS7_SA_NS_4lessIS7_EELb1EEENS5_ISA_EEE4findIS7_EENS_15__tree_iteratorISA_PNS_11__tree_nodeISA_PvEElEERKT_
000000000039d4e8 W _ZNSt6__ndk16__treeINS_12__value_typeINS_12basic_stringIcNS_11char_traitsIcEENS_9allocatorIcEEEEN13ConfigManager7stValueEEENS_19__map_value_compareIS7_SA_NS_4lessIS7_EELb1EEENS5_ISA_EEE7destroyEPNS_11__tree_nodeISA_PvEE
00000000003c6774 W _ZNSt6__ndk16__treeINS_12__value_typeINS_12basic_stringIcNS_11char_traitsIcEENS_9allocatorIcEEEEP8CElementEENS_19__map_value_compareIS7_SA_NS_4lessIS7_EELb1EEENS5_ISA_EEE12__find_equalIS7_EERPNS_16__tree_node_baseIPvEERPNS_15__tree_end_nodeISL_EERKT_
00000000003c607c W _ZNSt6__ndk16__treeINS_12__value_typeINS_12basic_stringIcNS_11char_traitsIcEENS_9allocatorIcEEEEP8CElementEENS_19__map_value_compareIS7_SA_NS_4lessIS7_EELb1EEENS5_ISA_EEE14__assign_multiINS_21__tree_const_iteratorISA_PNS_11__tree_nodeISA_PvEElEEEEvT_SO_
00000000003c6498 W _ZNSt6__ndk16__treeINS_12__value_typeINS_12basic_stringIcNS_11char_traitsIcEENS_9allocatorIcEEEEP8CElementEENS_19__map_value_compareIS7_SA_NS_4lessIS7_EELb1EEENS5_ISA_EEE15__emplace_multiIJRKNS_4pairIKS7_S9_EEEEENS_15__tree_iteratorISA_PNS_11__tree_nodeISA_PvEElEEDpOT_
00000000003c6660 W _ZNSt6__ndk16__treeINS_12__value_typeINS_12basic_stringIcNS_11char_traitsIcEENS_9allocatorIcEEEEP8CElementEENS_19__map_value_compareIS7_SA_NS_4lessIS7_EELb1EEENS5_ISA_EEE4findIS7_EENS_15__tree_iteratorISA_PNS_11__tree_nodeISA_PvEElEERKT_
00000000003c602c W _ZNSt6__ndk16__treeINS_12__value_typeINS_12basic_stringIcNS_11char_traitsIcEENS_9allocatorIcEEEEP8CElementEENS_19__map_value_compareIS7_SA_NS_4lessIS7_EELb1EEENS5_ISA_EEE7destroyEPNS_11__tree_nodeISA_PvEE
0000000000389c98 W _ZNSt6__ndk16__treeINS_12__value_typeINS_12basic_stringIcNS_11char_traitsIcEENS_9allocatorIcEEEEP8addrinfoEENS_19__map_value_compareIS7_SA_NS_4lessIS7_EELb1EEENS5_ISA_EEE12__find_equalIS7_EERPNS_16__tree_node_baseIPvEERPNS_15__tree_end_nodeISL_EERKT_
0000000000389ba8 W _ZNSt6__ndk16__treeINS_12__value_typeINS_12basic_stringIcNS_11char_traitsIcEENS_9allocatorIcEEEEP8addrinfoEENS_19__map_value_compareIS7_SA_NS_4lessIS7_EELb1EEENS5_ISA_EEE25__emplace_unique_key_argsIS7_JRKNS_21piecewise_construct_tENS_5tupleIJRKS7_EEENSL_IJEEEEEENS_4pairINS_15__tree_iteratorISA_PNS_11__tree_nodeISA_PvEElEEbEERKT_DpOT0_
000000000038a91c W _ZNSt6__ndk16__treeINS_12__value_typeINS_12basic_stringIcNS_11char_traitsIcEENS_9allocatorIcEEEEP8addrinfoEENS_19__map_value_compareIS7_SA_NS_4lessIS7_EELb1EEENS5_ISA_EEE4findIS7_EENS_15__tree_iteratorISA_PNS_11__tree_nodeISA_PvEElEERKT_
000000000038a824 W _ZNSt6__ndk16__treeINS_12__value_typeINS_12basic_stringIcNS_11char_traitsIcEENS_9allocatorIcEEEEP8addrinfoEENS_19__map_value_compareIS7_SA_NS_4lessIS7_EELb1EEENS5_ISA_EEE7destroyEPNS_11__tree_nodeISA_PvEE
000000000038eb34 W _ZNSt6__ndk16__treeINS_12__value_typeINS_12basic_stringIcNS_11char_traitsIcEENS_9allocatorIcEEEES7_EENS_19__map_value_compareIS7_S8_NS_4lessIS7_EELb1EEENS5_IS8_EEE12__find_equalIS7_EERPNS_16__tree_node_baseIPvEENS_21__tree_const_iteratorIS8_PNS_11__tree_nodeIS8_SH_EElEERPNS_15__tree_end_nodeISJ_EESK_RKT_
000000000038ee30 W _ZNSt6__ndk16__treeINS_12__value_typeINS_12basic_stringIcNS_11char_traitsIcEENS_9allocatorIcEEEES7_EENS_19__map_value_compareIS7_S8_NS_4lessIS7_EELb1EEENS5_IS8_EEE12__find_equalIS7_EERPNS_16__tree_node_baseIPvEERPNS_15__tree_end_nodeISJ_EERKT_
000000000038f7c4 W _ZNSt6__ndk16__treeINS_12__value_typeINS_12basic_stringIcNS_11char_traitsIcEENS_9allocatorIcEEEES7_EENS_19__map_value_compareIS7_S8_NS_4lessIS7_EELb1EEENS5_IS8_EEE25__emplace_unique_key_argsIS7_JRKNS_21piecewise_construct_tENS_5tupleIJRKS7_EEENSJ_IJEEEEEENS_4pairINS_15__tree_iteratorIS8_PNS_11__tree_nodeIS8_PvEElEEbEERKT_DpOT0_
000000000038ea28 W _ZNSt6__ndk16__treeINS_12__value_typeINS_12basic_stringIcNS_11char_traitsIcEENS_9allocatorIcEEEES7_EENS_19__map_value_compareIS7_S8_NS_4lessIS7_EELb1EEENS5_IS8_EEE30__emplace_hint_unique_key_argsIS7_JRKNS_4pairIKS7_S7_EEEEENS_15__tree_iteratorIS8_PNS_11__tree_nodeIS8_PvEElEENS_21__tree_const_iteratorIS8_SP_lEERKT_DpOT0_
000000000038f6b0 W _ZNSt6__ndk16__treeINS_12__value_typeINS_12basic_stringIcNS_11char_traitsIcEENS_9allocatorIcEEEES7_EENS_19__map_value_compareIS7_S8_NS_4lessIS7_EELb1EEENS5_IS8_EEE4findIS7_EENS_15__tree_iteratorIS8_PNS_11__tree_nodeIS8_PvEElEERKT_
000000000038ef48 W _ZNSt6__ndk16__treeINS_12__value_typeINS_12basic_stringIcNS_11char_traitsIcEENS_9allocatorIcEEEES7_EENS_19__map_value_compareIS7_S8_NS_4lessIS7_EELb1EEENS5_IS8_EEE7destroyEPNS_11__tree_nodeIS8_PvEE
00000000003dca1c W _ZNSt6__ndk16__treeINS_12__value_typeINS_12basic_stringIcNS_11char_traitsIcEENS_9allocatorIcEEEEiEENS_19__map_value_compareIS7_S8_NS_4lessIS7_EELb1EEENS5_IS8_EEE12__find_equalIS7_EERPNS_16__tree_node_baseIPvEERPNS_15__tree_end_nodeISJ_EERKT_
00000000003dcb84 W _ZNSt6__ndk16__treeINS_12__value_typeINS_12basic_stringIcNS_11char_traitsIcEENS_9allocatorIcEEEEiEENS_19__map_value_compareIS7_S8_NS_4lessIS7_EELb1EEENS5_IS8_EEE4findIS7_EENS_15__tree_iteratorIS8_PNS_11__tree_nodeIS8_PvEElEERKT_
00000000003dcb34 W _ZNSt6__ndk16__treeINS_12__value_typeINS_12basic_stringIcNS_11char_traitsIcEENS_9allocatorIcEEEEiEENS_19__map_value_compareIS7_S8_NS_4lessIS7_EELb1EEENS5_IS8_EEE7destroyEPNS_11__tree_nodeIS8_PvEE
00000000003c4e24 W _ZNSt6__ndk16__treeINS_12__value_typeIfNS_8functionIFviNS_12basic_stringIcNS_11char_traitsIcEENS_9allocatorIcEEEEEEEEENS_19__map_value_compareIfSB_NS_4lessIfEELb1EEENS6_ISB_EEE7destroyEPNS_11__tree_nodeISB_PvEE
0000000000473be0 W _ZNSt6__ndk16__treeINS_12__value_typeIiNS_8functionIFvdEEEEENS_19__map_value_compareIiS5_NS_4lessIiEELb1EEENS_9allocatorIS5_EEE7destroyEPNS_11__tree_nodeIS5_PvEE
00000000003c5374 W _ZNSt6__ndk16__treeINS_12__value_typeIiPN12__HttpClient13RequestResultEEENS_19__map_value_compareIiS5_NS_4lessIiEELb1EEENS_9allocatorIS5_EEE12__find_equalIiEERPNS_16__tree_node_baseIPvEENS_21__tree_const_iteratorIS5_PNS_11__tree_nodeIS5_SF_EElEERPNS_15__tree_end_nodeISH_EESI_RKT_
00000000003c4e90 W _ZNSt6__ndk16__treeINS_12__value_typeIiPN12__HttpClient13RequestResultEEENS_19__map_value_compareIiS5_NS_4lessIiEELb1EEENS_9allocatorIS5_EEE7destroyEPNS_11__tree_nodeIS5_PvEE
000000000038ac0c W _ZNSt6__ndk16__treeINS_12basic_stringIcNS_11char_traitsIcEENS_9allocatorIcEEEENS_4lessIS6_EENS4_IS6_EEE12__find_equalIS6_EERPNS_16__tree_node_baseIPvEERPNS_15__tree_end_nodeISF_EERKT_
0000000000389fd0 W _ZNSt6__ndk16__treeINS_12basic_stringIcNS_11char_traitsIcEENS_9allocatorIcEEEENS_4lessIS6_EENS4_IS6_EEE14__erase_uniqueIS6_EEmRKT_
000000000038ab20 W _ZNSt6__ndk16__treeINS_12basic_stringIcNS_11char_traitsIcEENS_9allocatorIcEEEENS_4lessIS6_EENS4_IS6_EEE25__emplace_unique_key_argsIS6_JRKS6_EEENS_4pairINS_15__tree_iteratorIS6_PNS_11__tree_nodeIS6_PvEElEEbEERKT_DpOT0_
000000000038a08c W _ZNSt6__ndk16__treeINS_12basic_stringIcNS_11char_traitsIcEENS_9allocatorIcEEEENS_4lessIS6_EENS4_IS6_EEE4findIS6_EENS_15__tree_iteratorIS6_PNS_11__tree_nodeIS6_PvEElEERKT_
000000000038a874 W _ZNSt6__ndk16__treeINS_12basic_stringIcNS_11char_traitsIcEENS_9allocatorIcEEEENS_4lessIS6_EENS4_IS6_EEE7destroyEPNS_11__tree_nodeIS6_PvEE
000000000071dce8 T _ZNSt6__ndk16localeC1ERKNS_12basic_stringIcNS_11char_traitsIcEENS_9allocatorIcEEEE
000000000071deb0 T _ZNSt6__ndk16localeC1ERKS0_RKNS_12basic_stringIcNS_11char_traitsIcEENS_9allocatorIcEEEEi
000000000071dce8 T _ZNSt6__ndk16localeC2ERKNS_12basic_stringIcNS_11char_traitsIcEENS_9allocatorIcEEEE
000000000071deb0 T _ZNSt6__ndk16localeC2ERKS0_RKNS_12basic_stringIcNS_11char_traitsIcEENS_9allocatorIcEEEEi
0000000000734d14 T _ZNSt6__ndk16stoullERKNS_12basic_stringIcNS_11char_traitsIcEENS_9allocatorIcEEEEPmi
0000000000734f08 T _ZNSt6__ndk16stoullERKNS_12basic_stringIwNS_11char_traitsIwEENS_9allocatorIwEEEEPmi
0000000000442dac W _ZNSt6__ndk16vectorINS_12basic_stringIcNS_11char_traitsIcEENS_9allocatorIcEEEENS4_IS6_EEE21__push_back_slow_pathIRKS6_EEvOT_
000000000038a6ac W _ZNSt6__ndk16vectorINS_12basic_stringIcNS_11char_traitsIcEENS_9allocatorIcEEEENS4_IS6_EEE21__push_back_slow_pathIS6_EEvOT_
000000000043a1ac W _ZNSt6__ndk16vectorINS_12basic_stringIcNS_11char_traitsIcEENS_9allocatorIcEEEENS4_IS6_EEE7reserveEm
0000000000393510 W _ZNSt6__ndk17getlineIcNS_11char_traitsIcEENS_9allocatorIcEEEERNS_13basic_istreamIT_T0_EES9_RNS_12basic_stringIS6_S7_T1_EES6_
0000000011ad5880 V _ZNSt6__ndk17num_getIcNS_19istreambuf_iteratorIcNS_11char_traitsIcEEEEE2idE
0000000011ad5890 V _ZNSt6__ndk17num_getIwNS_19istreambuf_iteratorIwNS_11char_traitsIwEEEEE2idE
0000000011ad58a0 V _ZNSt6__ndk17num_putIcNS_19ostreambuf_iteratorIcNS_11char_traitsIcEEEEE2idE
0000000011ad58b0 V _ZNSt6__ndk17num_putIwNS_19ostreambuf_iteratorIwNS_11char_traitsIwEEEEE2idE
00000000006fe4c0 T _ZNSt6__ndk18ios_base7failureC1ERKNS_12basic_stringIcNS_11char_traitsIcEENS_9allocatorIcEEEERKNS_10error_codeE
00000000006fe4c0 T _ZNSt6__ndk18ios_base7failureC2ERKNS_12basic_stringIcNS_11char_traitsIcEENS_9allocatorIcEEEERKNS_10error_codeE
0000000011ad58c0 V _ZNSt6__ndk18time_getIcNS_19istreambuf_iteratorIcNS_11char_traitsIcEEEEE2idE
0000000011ad58d0 V _ZNSt6__ndk18time_getIwNS_19istreambuf_iteratorIwNS_11char_traitsIwEEEEE2idE
0000000011ad58e0 V _ZNSt6__ndk18time_putIcNS_19ostreambuf_iteratorIcNS_11char_traitsIcEEEEE2idE
0000000011ad58f0 V _ZNSt6__ndk18time_putIwNS_19ostreambuf_iteratorIwNS_11char_traitsIwEEEEE2idE
0000000000702738 W _ZNSt6__ndk19__num_getIcE17__stage2_int_loopEciPcRS2_RjcRKNS_12basic_stringIcNS_11char_traitsIcEENS_9allocatorIcEEEEPjRSD_S2_
000000000070683c W _ZNSt6__ndk19__num_getIcE19__stage2_float_loopEcRbRcPcRS4_ccRKNS_12basic_stringIcNS_11char_traitsIcEENS_9allocatorIcEEEEPjRSE_RjS4_
0000000000706310 W _ZNSt6__ndk19__num_getIwE17__stage2_int_loopEwiPcRS2_RjwRKNS_12basic_stringIcNS_11char_traitsIcEENS_9allocatorIcEEEEPjRSD_Pw
0000000000706f98 W _ZNSt6__ndk19__num_getIwE19__stage2_float_loopEwRbRcPcRS4_wwRKNS_12basic_stringIcNS_11char_traitsIcEENS_9allocatorIcEEEEPjRSE_RjPw
00000000006f172c W _ZNSt6__ndk19basic_iosIcNS_11char_traitsIcEEE7copyfmtERKS3_
00000000006f1700 W _ZNSt6__ndk19basic_iosIcNS_11char_traitsIcEEED0Ev
00000000006f166c W _ZNSt6__ndk19basic_iosIcNS_11char_traitsIcEEED1Ev
00000000006f166c W _ZNSt6__ndk19basic_iosIcNS_11char_traitsIcEEED2Ev
00000000006f1b70 W _ZNSt6__ndk19basic_iosIwNS_11char_traitsIwEEE7copyfmtERKS3_
00000000006f1b44 W _ZNSt6__ndk19basic_iosIwNS_11char_traitsIwEEED0Ev
00000000006f1b3c W _ZNSt6__ndk19basic_iosIwNS_11char_traitsIwEEED1Ev
00000000006f1b3c W _ZNSt6__ndk19basic_iosIwNS_11char_traitsIwEEED2Ev
0000000011ad5940 V _ZNSt6__ndk19money_getIcNS_19istreambuf_iteratorIcNS_11char_traitsIcEEEEE2idE
0000000000710bc8 W _ZNSt6__ndk19money_getIcNS_19istreambuf_iteratorIcNS_11char_traitsIcEEEEE8__do_getERS4_S4_bRKNS_6localeEjRjRbRKNS_5ctypeIcEERNS_10unique_ptrIcPFvPvEEERPcSM_
0000000011ad5950 V _ZNSt6__ndk19money_getIwNS_19istreambuf_iteratorIwNS_11char_traitsIwEEEEE2idE
00000000007128c4 W _ZNSt6__ndk19money_getIwNS_19istreambuf_iteratorIwNS_11char_traitsIwEEEEE8__do_getERS4_S4_bRKNS_6localeEjRjRbRKNS_5ctypeIwEERNS_10unique_ptrIwPFvPvEEERPwSM_
0000000011ad5960 V _ZNSt6__ndk19money_putIcNS_19ostreambuf_iteratorIcNS_11char_traitsIcEEEEE2idE
0000000011ad5970 V _ZNSt6__ndk19money_putIwNS_19ostreambuf_iteratorIwNS_11char_traitsIwEEEEE2idE
0000000000733fe8 W _ZNSt6__ndk1plIcNS_11char_traitsIcEENS_9allocatorIcEEEENS_12basic_stringIT_T0_T1_EEPKS6_RKS9_
000000000076e638 V _ZTCNSt6__ndk114basic_ifstreamIcNS_11char_traitsIcEEEE0_NS_13basic_istreamIcS2_EE
00000000007adf90 V _ZTCNSt6__ndk114basic_iostreamIcNS_11char_traitsIcEEEE0_NS_13basic_istreamIcS2_EE
00000000007adfe0 V _ZTCNSt6__ndk114basic_iostreamIcNS_11char_traitsIcEEEE16_NS_13basic_ostreamIcS2_EE
000000000077c728 V _ZTCNSt6__ndk118basic_stringstreamIcNS_11char_traitsIcEENS_9allocatorIcEEEE0_NS_13basic_istreamIcS2_EE
000000000077c6b0 V _ZTCNSt6__ndk118basic_stringstreamIcNS_11char_traitsIcEENS_9allocatorIcEEEE0_NS_14basic_iostreamIcS2_EE
000000000077c778 V _ZTCNSt6__ndk118basic_stringstreamIcNS_11char_traitsIcEENS_9allocatorIcEEEE16_NS_13basic_ostreamIcS2_EE
00000000007710a8 V _ZTCNSt6__ndk119basic_istringstreamIcNS_11char_traitsIcEENS_9allocatorIcEEEE0_NS_13basic_istreamIcS2_EE
0000000000771268 V _ZTCNSt6__ndk119basic_ostringstreamIcNS_11char_traitsIcEENS_9allocatorIcEEEE0_NS_13basic_ostreamIcS2_EE
000000000076e7b8 V _ZTIFvP12ComboBoxItemE
0000000000771010 V _ZTIN4Json10CharReader7FactoryE
00000000007711d0 V _ZTIN4Json10CharReaderE
00000000007711e0 V _ZTIN4Json13OurCharReaderE
0000000000771020 D _ZTIN4Json17CharReaderBuilderE
000000000076e790 V _ZTINSt6__ndk110__function6__baseIFvP12ComboBoxItemEEE
000000000076e280 V _ZTINSt6__ndk110__function6__baseIFviNS_12basic_stringIcNS_11char_traitsIcEENS_9allocatorIcEEEEEEE
000000000076e7a0 V _ZTINSt6__ndk110__function6__funcIPFvP12ComboBoxItemENS_9allocatorIS5_EES4_EE
000000000076e720 V _ZTINSt6__ndk113basic_filebufIcNS_11char_traitsIcEEEE
00000000007adef0 V _ZTINSt6__ndk113basic_istreamIcNS_11char_traitsIcEEEE
00000000007adf18 V _ZTINSt6__ndk113basic_istreamIwNS_11char_traitsIwEEEE
00000000007adf40 V _ZTINSt6__ndk113basic_ostreamIcNS_11char_traitsIcEEEE
00000000007adf68 V _ZTINSt6__ndk113basic_ostreamIwNS_11char_traitsIwEEEE
000000000076e688 V _ZTINSt6__ndk114basic_ifstreamIcNS_11char_traitsIcEEEE
00000000007ae030 V _ZTINSt6__ndk114basic_iostreamIcNS_11char_traitsIcEEEE
00000000007aded0 V _ZTINSt6__ndk115basic_streambufIcNS_11char_traitsIcEEEE
00000000007adee0 V _ZTINSt6__ndk115basic_streambufIwNS_11char_traitsIwEEEE
0000000000771190 V _ZTINSt6__ndk115basic_stringbufIcNS_11char_traitsIcEENS_9allocatorIcEEEE
00000000007af780 V _ZTINSt6__ndk115time_get_bynameIcNS_19istreambuf_iteratorIcNS_11char_traitsIcEEEEEE
00000000007af8b0 V _ZTINSt6__ndk115time_get_bynameIwNS_19istreambuf_iteratorIwNS_11char_traitsIwEEEEEE
00000000007af9f8 V _ZTINSt6__ndk115time_put_bynameIcNS_19ostreambuf_iteratorIcNS_11char_traitsIcEEEEEE
00000000007afa40 V _ZTINSt6__ndk115time_put_bynameIwNS_19ostreambuf_iteratorIwNS_11char_traitsIwEEEEEE
000000000077c7c8 V _ZTINSt6__ndk118basic_stringstreamIcNS_11char_traitsIcEENS_9allocatorIcEEEE
00000000007710f8 V _ZTINSt6__ndk119basic_istringstreamIcNS_11char_traitsIcEENS_9allocatorIcEEEE
00000000007712b8 V _ZTINSt6__ndk119basic_ostringstreamIcNS_11char_traitsIcEENS_9allocatorIcEEEE
00000000007af1b0 V _ZTINSt6__ndk17num_getIcNS_19istreambuf_iteratorIcNS_11char_traitsIcEEEEEE
00000000007af290 V _ZTINSt6__ndk17num_getIwNS_19istreambuf_iteratorIwNS_11char_traitsIwEEEEEE
00000000007af368 V _ZTINSt6__ndk17num_putIcNS_19ostreambuf_iteratorIcNS_11char_traitsIcEEEEEE
00000000007af430 V _ZTINSt6__ndk17num_putIwNS_19ostreambuf_iteratorIwNS_11char_traitsIwEEEEEE
00000000007af530 V _ZTINSt6__ndk18time_getIcNS_19istreambuf_iteratorIcNS_11char_traitsIcEEEEEE
00000000007af630 V _ZTINSt6__ndk18time_getIwNS_19istreambuf_iteratorIwNS_11char_traitsIwEEEEEE
00000000007af928 V _ZTINSt6__ndk18time_putIcNS_19ostreambuf_iteratorIcNS_11char_traitsIcEEEEEE
00000000007af990 V _ZTINSt6__ndk18time_putIwNS_19ostreambuf_iteratorIwNS_11char_traitsIwEEEEEE
00000000007ade80 V _ZTINSt6__ndk19basic_iosIcNS_11char_traitsIcEEEE
00000000007adeb8 V _ZTINSt6__ndk19basic_iosIwNS_11char_traitsIwEEEE
00000000007aff70 V _ZTINSt6__ndk19money_getIcNS_19istreambuf_iteratorIcNS_11char_traitsIcEEEEEE
00000000007afff0 V _ZTINSt6__ndk19money_getIwNS_19istreambuf_iteratorIwNS_11char_traitsIwEEEEEE
00000000007b0070 V _ZTINSt6__ndk19money_putIcNS_19ostreambuf_iteratorIcNS_11char_traitsIcEEEEEE
00000000007b00f0 V _ZTINSt6__ndk19money_putIwNS_19ostreambuf_iteratorIwNS_11char_traitsIwEEEEEE
000000000076e7c8 V _ZTIPFvP12ComboBoxItemE
00000000001c7459 V _ZTSFvP12ComboBoxItemE
00000000001cdf6d V _ZTSN4Json10CharReader7FactoryE
00000000001ce02e V _ZTSN4Json10CharReaderE
00000000001ce017 V _ZTSN4Json13OurCharReaderE
00000000001cdf52 R _ZTSN4Json17CharReaderBuilderE
00000000001c7412 V _ZTSNSt6__ndk110__function6__baseIFvP12ComboBoxItemEEE
00000000001c5561 V _ZTSNSt6__ndk110__function6__baseIFviNS_12basic_stringIcNS_11char_traitsIcEENS_9allocatorIcEEEEEEE
00000000001c73c8 V _ZTSNSt6__ndk110__function6__funcIPFvP12ComboBoxItemENS_9allocatorIS5_EES4_EE
00000000001c5947 V _ZTSNSt6__ndk113basic_filebufIcNS_11char_traitsIcEEEE
00000000002cfe28 V _ZTSNSt6__ndk113basic_istreamIcNS_11char_traitsIcEEEE
00000000002cfe5a V _ZTSNSt6__ndk113basic_istreamIwNS_11char_traitsIwEEEE
00000000002cfe8c V _ZTSNSt6__ndk113basic_ostreamIcNS_11char_traitsIcEEEE
00000000002cfebe V _ZTSNSt6__ndk113basic_ostreamIwNS_11char_traitsIwEEEE
00000000001c5914 V _ZTSNSt6__ndk114basic_ifstreamIcNS_11char_traitsIcEEEE
00000000002cfef0 V _ZTSNSt6__ndk114basic_iostreamIcNS_11char_traitsIcEEEE
00000000002cfdc0 V _ZTSNSt6__ndk115basic_streambufIcNS_11char_traitsIcEEEE
00000000002cfdf4 V _ZTSNSt6__ndk115basic_streambufIwNS_11char_traitsIwEEEE
00000000001cdfd2 V _ZTSNSt6__ndk115basic_stringbufIcNS_11char_traitsIcEENS_9allocatorIcEEEE
00000000002d1190 V _ZTSNSt6__ndk115time_get_bynameIcNS_19istreambuf_iteratorIcNS_11char_traitsIcEEEEEE
00000000002d121b V _ZTSNSt6__ndk115time_get_bynameIwNS_19istreambuf_iteratorIwNS_11char_traitsIwEEEEEE
00000000002d1336 V _ZTSNSt6__ndk115time_put_bynameIcNS_19ostreambuf_iteratorIcNS_11char_traitsIcEEEEEE
00000000002d1386 V _ZTSNSt6__ndk115time_put_bynameIwNS_19ostreambuf_iteratorIwNS_11char_traitsIwEEEEEE
00000000001dc67e V _ZTSNSt6__ndk118basic_stringstreamIcNS_11char_traitsIcEENS_9allocatorIcEEEE
00000000001cdf89 V _ZTSNSt6__ndk119basic_istringstreamIcNS_11char_traitsIcEENS_9allocatorIcEEEE
00000000001ce042 V _ZTSNSt6__ndk119basic_ostringstreamIcNS_11char_traitsIcEENS_9allocatorIcEEEE
00000000002d0ee8 V _ZTSNSt6__ndk17num_getIcNS_19istreambuf_iteratorIcNS_11char_traitsIcEEEEEE
00000000002d0f64 V _ZTSNSt6__ndk17num_getIwNS_19istreambuf_iteratorIwNS_11char_traitsIwEEEEEE
00000000002d0fc4 V _ZTSNSt6__ndk17num_putIcNS_19ostreambuf_iteratorIcNS_11char_traitsIcEEEEEE
00000000002d1040 V _ZTSNSt6__ndk17num_putIwNS_19ostreambuf_iteratorIwNS_11char_traitsIwEEEEEE
00000000002d10a0 V _ZTSNSt6__ndk18time_getIcNS_19istreambuf_iteratorIcNS_11char_traitsIcEEEEEE
00000000002d1123 V _ZTSNSt6__ndk18time_getIwNS_19istreambuf_iteratorIwNS_11char_traitsIwEEEEEE
00000000002d128e V _ZTSNSt6__ndk18time_putIcNS_19ostreambuf_iteratorIcNS_11char_traitsIcEEEEEE
00000000002d12ee V _ZTSNSt6__ndk18time_putIwNS_19ostreambuf_iteratorIwNS_11char_traitsIwEEEEEE
00000000002cfd66 V _ZTSNSt6__ndk19basic_iosIcNS_11char_traitsIcEEEE
00000000002cfd93 V _ZTSNSt6__ndk19basic_iosIwNS_11char_traitsIwEEEE
00000000002d1502 V _ZTSNSt6__ndk19money_getIcNS_19istreambuf_iteratorIcNS_11char_traitsIcEEEEEE
00000000002d1567 V _ZTSNSt6__ndk19money_getIwNS_19istreambuf_iteratorIwNS_11char_traitsIwEEEEEE
00000000002d15cc V _ZTSNSt6__ndk19money_putIcNS_19ostreambuf_iteratorIcNS_11char_traitsIcEEEEEE
00000000002d1631 V _ZTSNSt6__ndk19money_putIwNS_19ostreambuf_iteratorIwNS_11char_traitsIwEEEEEE
00000000001c7445 V _ZTSPFvP12ComboBoxItemE
00000000007adc10 V _ZTTNSt6__ndk113basic_istreamIcNS_11char_traitsIcEEEE
00000000007adc70 V _ZTTNSt6__ndk113basic_istreamIwNS_11char_traitsIwEEEE
00000000007adcd0 V _ZTTNSt6__ndk113basic_ostreamIcNS_11char_traitsIcEEEE
00000000007add30 V _ZTTNSt6__ndk113basic_ostreamIwNS_11char_traitsIwEEEE
000000000076e618 V _ZTTNSt6__ndk114basic_ifstreamIcNS_11char_traitsIcEEEE
00000000007addb8 V _ZTTNSt6__ndk114basic_iostreamIcNS_11char_traitsIcEEEE
000000000077c660 V _ZTTNSt6__ndk118basic_stringstreamIcNS_11char_traitsIcEENS_9allocatorIcEEEE
0000000000771088 V _ZTTNSt6__ndk119basic_istringstreamIcNS_11char_traitsIcEENS_9allocatorIcEEEE
0000000000771248 V _ZTTNSt6__ndk119basic_ostringstreamIcNS_11char_traitsIcEENS_9allocatorIcEEEE
00000000007711a8 V _ZTVN4Json13OurCharReaderE
0000000000770fe8 D _ZTVN4Json17CharReaderBuilderE
000000000076e738 V _ZTVNSt6__ndk110__function6__funcIPFvP12ComboBoxItemENS_9allocatorIS5_EES4_EE
000000000076e6a0 V _ZTVNSt6__ndk113basic_filebufIcNS_11char_traitsIcEEEE
00000000007adbc0 V _ZTVNSt6__ndk113basic_istreamIcNS_11char_traitsIcEEEE
00000000007adc20 V _ZTVNSt6__ndk113basic_istreamIwNS_11char_traitsIwEEEE
00000000007adc80 V _ZTVNSt6__ndk113basic_ostreamIcNS_11char_traitsIcEEEE
00000000007adce0 V _ZTVNSt6__ndk113basic_ostreamIwNS_11char_traitsIwEEEE
000000000076e5c8 V _ZTVNSt6__ndk114basic_ifstreamIcNS_11char_traitsIcEEEE
00000000007add40 V _ZTVNSt6__ndk114basic_iostreamIcNS_11char_traitsIcEEEE
00000000007adac0 V _ZTVNSt6__ndk115basic_streambufIcNS_11char_traitsIcEEEE
00000000007adb40 V _ZTVNSt6__ndk115basic_streambufIwNS_11char_traitsIwEEEE
0000000000771110 V _ZTVNSt6__ndk115basic_stringbufIcNS_11char_traitsIcEENS_9allocatorIcEEEE
00000000007af678 V _ZTVNSt6__ndk115time_get_bynameIcNS_19istreambuf_iteratorIcNS_11char_traitsIcEEEEEE
00000000007af7b8 V _ZTVNSt6__ndk115time_get_bynameIwNS_19istreambuf_iteratorIwNS_11char_traitsIwEEEEEE
00000000007af9c8 V _ZTVNSt6__ndk115time_put_bynameIcNS_19ostreambuf_iteratorIcNS_11char_traitsIcEEEEEE
00000000007afa10 V _ZTVNSt6__ndk115time_put_bynameIwNS_19ostreambuf_iteratorIwNS_11char_traitsIwEEEEEE
000000000077c5e8 V _ZTVNSt6__ndk118basic_stringstreamIcNS_11char_traitsIcEENS_9allocatorIcEEEE
0000000000771038 V _ZTVNSt6__ndk119basic_istringstreamIcNS_11char_traitsIcEENS_9allocatorIcEEEE
00000000007711f8 V _ZTVNSt6__ndk119basic_ostringstreamIcNS_11char_traitsIcEENS_9allocatorIcEEEE
00000000007af0f8 V _ZTVNSt6__ndk17num_getIcNS_19istreambuf_iteratorIcNS_11char_traitsIcEEEEEE
00000000007af1e8 V _ZTVNSt6__ndk17num_getIwNS_19istreambuf_iteratorIwNS_11char_traitsIwEEEEEE
00000000007af2c8 V _ZTVNSt6__ndk17num_putIcNS_19ostreambuf_iteratorIcNS_11char_traitsIcEEEEEE
00000000007af3a0 V _ZTVNSt6__ndk17num_putIwNS_19ostreambuf_iteratorIwNS_11char_traitsIwEEEEEE
00000000007af468 V _ZTVNSt6__ndk18time_getIcNS_19istreambuf_iteratorIcNS_11char_traitsIcEEEEEE
00000000007af578 V _ZTVNSt6__ndk18time_getIwNS_19istreambuf_iteratorIwNS_11char_traitsIwEEEEEE
00000000007af8e8 V _ZTVNSt6__ndk18time_putIcNS_19ostreambuf_iteratorIcNS_11char_traitsIcEEEEEE
00000000007af960 V _ZTVNSt6__ndk18time_putIwNS_19ostreambuf_iteratorIwNS_11char_traitsIwEEEEEE
00000000007ade60 V _ZTVNSt6__ndk19basic_iosIcNS_11char_traitsIcEEEE
00000000007ade98 V _ZTVNSt6__ndk19basic_iosIwNS_11char_traitsIwEEEE
00000000007aff28 V _ZTVNSt6__ndk19money_getIcNS_19istreambuf_iteratorIcNS_11char_traitsIcEEEEEE
00000000007affa8 V _ZTVNSt6__ndk19money_getIwNS_19istreambuf_iteratorIwNS_11char_traitsIwEEEEEE
00000000007b0028 V _ZTVNSt6__ndk19money_putIcNS_19ostreambuf_iteratorIcNS_11char_traitsIcEEEEEE
00000000007b00a8 V _ZTVNSt6__ndk19money_putIwNS_19ostreambuf_iteratorIwNS_11char_traitsIwEEEEEE
00000000006fe2d0 W _ZThn16_NSt6__ndk114basic_iostreamIcNS_11char_traitsIcEEED0Ev
00000000006fe27c W _ZThn16_NSt6__ndk114basic_iostreamIcNS_11char_traitsIcEEED1Ev
0000000000516b04 W _ZThn16_NSt6__ndk118basic_stringstreamIcNS_11char_traitsIcEENS_9allocatorIcEEED0Ev
000000000051695c W _ZThn16_NSt6__ndk118basic_stringstreamIcNS_11char_traitsIcEENS_9allocatorIcEEED1Ev
00000000006f2c88 W _ZTv0_n24_NSt6__ndk113basic_istreamIcNS_11char_traitsIcEEED0Ev
00000000006f2c40 W _ZTv0_n24_NSt6__ndk113basic_istreamIcNS_11char_traitsIcEEED1Ev
00000000006f61f8 W _ZTv0_n24_NSt6__ndk113basic_istreamIwNS_11char_traitsIwEEED0Ev
00000000006f61b0 W _ZTv0_n24_NSt6__ndk113basic_istreamIwNS_11char_traitsIwEEED1Ev
00000000006f9760 W _ZTv0_n24_NSt6__ndk113basic_ostreamIcNS_11char_traitsIcEEED0Ev
00000000006f9718 W _ZTv0_n24_NSt6__ndk113basic_ostreamIcNS_11char_traitsIcEEED1Ev
00000000006fbd04 W _ZTv0_n24_NSt6__ndk113basic_ostreamIwNS_11char_traitsIwEEED0Ev
00000000006fbcbc W _ZTv0_n24_NSt6__ndk113basic_ostreamIwNS_11char_traitsIwEEED1Ev
0000000000392464 W _ZTv0_n24_NSt6__ndk114basic_ifstreamIcNS_11char_traitsIcEEED0Ev
00000000003923a8 W _ZTv0_n24_NSt6__ndk114basic_ifstreamIcNS_11char_traitsIcEEED1Ev
00000000006fe300 W _ZTv0_n24_NSt6__ndk114basic_iostreamIcNS_11char_traitsIcEEED0Ev
00000000006fe288 W _ZTv0_n24_NSt6__ndk114basic_iostreamIcNS_11char_traitsIcEEED1Ev
0000000000516b98 W _ZTv0_n24_NSt6__ndk118basic_stringstreamIcNS_11char_traitsIcEENS_9allocatorIcEEED0Ev
00000000005169e8 W _ZTv0_n24_NSt6__ndk118basic_stringstreamIcNS_11char_traitsIcEENS_9allocatorIcEEED1Ev
000000000043035c W _ZTv0_n24_NSt6__ndk119basic_istringstreamIcNS_11char_traitsIcEENS_9allocatorIcEEED0Ev
0000000000430250 W _ZTv0_n24_NSt6__ndk119basic_istringstreamIcNS_11char_traitsIcEENS_9allocatorIcEEED1Ev
0000000000430b58 W _ZTv0_n24_NSt6__ndk119basic_ostringstreamIcNS_11char_traitsIcEENS_9allocatorIcEEED0Ev
0000000000430a4c W _ZTv0_n24_NSt6__ndk119basic_ostringstreamIcNS_11char_traitsIcEENS_9allocatorIcEEED1Ev
00000000005ed208 T asn1_item_embed_free
00000000009be74c B autoMapColorTbl
000000000ebd037a B autoMappingBuf
00000000008062a4 D autoMappingInitFlag
000000000d7b7774 B battlePetButtonFlag
00000000007e9f8c D battlePetNoBak
00000000007e9f90 D battlePetNoBak2
0000000000ba6bcc B bitmapnumbertable
000000000ecbdc76 B charDelStatus
0000000000805c98 D charGrano
00000000007e9fa4 D charIconOffsetY
000000000ecbdc74 B charListStatus
000000000ecbdc7a B charLoginStatus
000000000ecbdc7c B charLogoutStatus
000000000d7b7d80 B charObj
000000000ec9537c B charObjExt
000000000ec9582d B charObjExtWndFlag
000000000ec9582c B charObjFlag
000000000ec95834 B charObjMoveFlag
000000000eba6898 B charPrioBuf
000000000eba6860 B charPrioBufTop
000000000ebd0358 B charPrioCnt
0000000011ad1a28 B charSubTitleBuff
00000000008142b0 B charTitle
0000000000807004 D charTurnColor
000000000ece253c B chartable
000000000cf12648 B createCharPrompting
000000000eb3a6cc B createNewCharFlag
000000000cf05f50 B delCharCount
000000000080ef8c B draw_map_bgm_flg
00000000005aa5b0 T dtls1_get_bitmap
00000000005ab32c T dtls1_record_bitmap_update
000000000ebe9a98 B emptyBufMapEffect
000000000091dc68 B fMapBgm
000000000fa47094 B fMapHeight
000000000fa47090 B fMapWidth
000000000d9a0208 B freeCharObj
000000000eb396a8 B g_NormalCallbackMap
000000000c2c1e18 B gachaHaveItemIndex
000000000ecbdcfe B gamestate_deletechar_charname
000000000ecbdc7e B gamestate_login_charname
000000000eba656c B getMapAreaCnt
000000000eba655c B getMapAreaX1
000000000eba6564 B getMapAreaX2
000000000eba6560 B getMapAreaY1
000000000eba6568 B getMapAreaY2
000000000eb8fa2a B hitMap
00000000007c7300 D itemDescriptionFromServer
00000000007c72d8 D itemFlg
000000000ebeb0af B itemInfoFlag
000000000c2c1d18 B itemNameFromServer
00000000008071cc D itemNo
000000000d9a06d0 B itemOverlapCheckCnt
000000000d9a0220 B itemOverlapTbl
000000000ebeb0f0 B itemPages
00000000007c7400 D itemRenderFlg
00000000007c7404 D itemRenderWNDFlg
000000000eb6c964 B itemStorage
000000000eb79de8 B itemStorageNowNum
000000000eb79de4 B itemStorageTotal
000000000eb79dec B itemStorageVipGold
000000000ebeb0c4 B itemWmIndex
000000000ebebef4 B itemWndNo
000000000ebeb0c0 B itemWndType
000000000ebebdf8 B itemflag
000000000ebeb0f4 B jsItemPages
00000000005a7124 T locale_charset
000000000eb8da10 B mapAreaHeight
000000000eb8da0c B mapAreaWidth
000000000eb8d9fc B mapAreaX1
000000000eb8da04 B mapAreaX2
000000000eb8da00 B mapAreaY1
000000000eb8da08 B mapAreaY2
000000000eb904dc B mapCenterX
000000000eb904e0 B mapCenterY
00000000007c7630 D mapConfigData
000000000ebe9aa8 B mapEffectDrawFlag
000000000ebe9ab8 B mapEffectFallingStarFlag
000000000ebe9abc B mapEffectFallingStarTime
000000000ebe9ac2 B mapEffectKamiFubukiCnt
000000000ebe9ac0 B mapEffectKamiFubukiLevel
00000000008062b0 D mapEffectMoveDir
000000000ebe9aae B mapEffectRainCnt
000000000ebe9aaa B mapEffectRainLevel
000000000ebe9ab4 B mapEffectSnowCnt
000000000ebe9ab0 B mapEffectSnowLevel
000000000ebe9ab6 B mapEffectStarFlag
000000000eba6552 B mapEmptyDir
000000000eba6551 B mapEmptyFlag
000000000eba6554 B mapEmptyGx
000000000eba6558 B mapEmptyGy
000000000eba6570 B mapEmptyStartTime
00000000007c9310 D mapItemBufferData
00000000007c9028 D mapItemData
00000000007c8008 D mapMouseData
00000000007c7fd8 D mapMousePointData
00000000007c98e0 D mapPcData
00000000007c93d0 D mapPetData
00000000007c9238 D mapProfessionSkillData
00000000007c8410 D mapTitleStrData
00000000007c8158 D mapTitleStrStyleData
000000000ebebdec B mapWndNo
000000000080ef90 B map_bgm_no
00000000007c8860 D mapactionData
00000000007c81b8 D mapai
00000000007c8350 D mapaiData
00000000007c8758 D mapcharextData
00000000007c8650 D mapcharlisttableData
00000000007c8458 D mapmagicData
00000000007c8500 D mappartyData
00000000007c85c0 D mappetskillData
00000000007c83c8 D mapwmStrData
000000000ebdfe58 B masterBufMapEffect
000000000d9a0200 B maxCharObj
000000000ebebed8 B mixPetNo
                 U mmap@LIBC
000000000eb8d9e8 B mouseMapGx
000000000eb8d9ec B mouseMapGy
000000000eb8d9f0 B mouseMapX
000000000eb8d9f4 B mouseMapY
                 U munmap@LIBC
000000000c2c1cf0 B myItemId
000000000ecbdc78 B newCharStatus
000000000fa44b90 B newCharacterDex
000000000fa44b94 B newCharacterEarth
000000000fa44b80 B newCharacterFaceGraNo
000000000fa44b9c B newCharacterFire
000000000fa44b7c B newCharacterGraNo
000000000fa44ba4 B newCharacterHomeTown
000000000fa44b4a B newCharacterName
000000000fa44b88 B newCharacterStr
000000000fa44b8c B newCharacterTgh
000000000fa44b84 B newCharacterVit
000000000fa44b98 B newCharacterWater
000000000fa44ba0 B newCharacterWind
000000000ebeb0b0 B newItemBtn1
000000000ebeb0b4 B newItemBtn2
000000000ebeb0b8 B newItemBtn3
000000000ec95830 B nowCharobjIndex
000000000eb518c8 B nowUserItemCnt
000000000ebebb48 B npcPromptFlag
000000000ebe9aac B oldMapEffectRainLevel
000000000ebe9ab2 B oldMapEffectSnowLevel
000000000ebec760 B pActMenuWndItemPlay
000000000ebebee0 B pActPet
000000000ebebf00 B pActPet2
000000000e94ddc8 B pShowPet
000000000d9e4790 B pShowiTtemPet
000000000ecdf4d4 B pet
000000000ec114a8 B petRideFlg
000000000fa4363c B petSkill
000000000ebebed4 B petStatusNo
000000000eb79e00 B petStorage
000000000eb88404 B petStorageNowNum
000000000eb88408 B petStorageNowVipGrod
000000000eb88400 B petStorageTotalNum
00000000005a9d54 T pitem_free
00000000005a9cec T pitem_new
00000000006dfc18 T policy_cache_set_mapping
000000000eb5f9e0 B poolItem
000000000eb6b440 B rechargeType
000000000eb6b444 B rechargeUrl
000000000eb69b34 B rideablePet
000000000091dc6c B sCharSide
000000000091dc64 B sPetStatFlag
000000000eb496b0 B sealItem
000000000eb517dc B sealItemCnt
000000000d9a020c B searchCharObj
000000000eb48de8 B selCharName
000000000eb517b0 B selShopItemNo
000000000eb5f9d8 B selShopSkillPetNo
0000000000807684 D selectCharObjIndex
000000000ebeb090 B sortItemTime
00000000005b20c4 T ssl3_get_cipher_by_char
00000000005b20d8 T ssl3_put_cipher_by_char
00000000005b7e28 T ssl_get_cipher_by_char
000000000d9a0204 B tailCharObj
000000000da0f4d0 B talkItemFlg
000000000ebe9aa0 B useBufMapEffect
000000000ebeb0d0 B useItemWndFlag
000000000eb51b10 B userItem
00000000007ace70 D v3_policy_mappings
00000000006ef93c T x509v3_add_len_value_uchar
